00000000 A __alt_mem_instruction_rom_0
00000000 T __reset
00000020 A __flash_exceptions_start
00000020 A __ram_exceptions_end
00000020 A __ram_exceptions_start
00000020 T _start
00000098 t alt_after_alt_main
0000009c W _ZN15CriticalSectionC1Ev
0000009c W _ZN15CriticalSectionC2Ev
000000b8 W _ZN15CriticalSectionD1Ev
000000b8 W _ZN15CriticalSectionD2Ev
000000d8 T _ZN18CentralizedMonitor5StartEv
00000118 T _ZN18CentralizedMonitor13SetErrorFlagsEm
00000180 T _ZN18CentralizedMonitor12Adc2CallbackEv
000001d8 T _ZN18CentralizedMonitor13SetFaultFlagsEm
00000240 T _ZN18CentralizedMonitor11Pio1HandlerEPv
0000032c T _ZN18CentralizedMonitor23VectorControllerHandlerEPv
00000398 T _ZN18CentralizedMonitor22MotorControllerHandlerEPv
00000408 T _ZN18CentralizedMonitor24ResetMotorInterruptFlagsEv
00000430 T _ZN18CentralizedMonitor10InitializeEv
000004e4 T _ZN18CentralizedMonitor15ClearErrorFlagsEv
000005c4 T _ZN18CentralizedMonitor20DoPeriodicCommonWorkEv
00000864 T _ZN18CentralizedMonitor12TimerHandlerEPv
00000890 T _ZN18CentralizedMonitor11Pio0HandlerEPv
000008b0 T _ZN10DataHolder21fetchOnPreControlLoopEv
00000a44 T _ZN10DataHolder15fetchAdc2ResultEv
00000a84 W _ZN5Eigen8internal31generic_dense_assignment_kernelINS0_9evaluatorINS_6MatrixIfLi3ELi1ELi0ELi3ELi1EEEEES5_NS0_9assign_opIffEELi0EE11assignCoeffEi
00000aac W _ZN5Eigen8internal15call_assignmentINS_6MatrixIfLi3ELi1ELi0ELi3ELi1EEES3_EEvRT_RKT0_
00000b08 T _ZN10DataHolder22fetchOnPostControlLoopEv
00000c20 T _ZN17DribbleController12StartControlEv
00000c38 T _ZN17DribbleController11StopControlEv
00000c58 T _ZN17DribbleController6UpdateEbb
00000d70 W _ZN4Adc213AwaitCompleteEv
00000d84 T _ZN4Adc220StartConversionAsyncEi
00000dd0 T _ZN4Adc25StartEv
00000e0c T _ZN4Adc27HandlerEPv
00000f7c T _ZN4Adc212ReadRegisterEiPt
00000fe4 T _ZN4Adc210InitializeEv
00001020 T _ZN3Imu7SetBankEm
00001070 T _ZN3Imu12ReadRegisterEm
000010d0 T _ZN3Imu13WriteRegisterEmh
00001134 T _ZN3Imu10InitializeEv
00001218 T main
00001284 T _ZNK24MsgdmaTransmitDescriptor13TransmitAsyncEP14alt_msgdma_dev
00001368 T _ZN12SharedMemory16UpdateParametersEv
0000140c T _ZN12SharedMemory15ClearParametersEv
0000144c T _ZN17StreamTransmitter14TransmitStatusEv
0000146c T _ZN17StreamTransmitter12TransmitAdc2ERK10Adc2Data_t
000014a0 T _ZN17StreamTransmitter14TransmitMotionERK12MotionData_tRK13ControlData_ti
00001748 T _ZN15WheelController19initializeRegistersEv
00001790 T _ZN15WheelController20calculateOmegaWeightEff
000017fc W _ZNK5Eigen10MatrixBaseINS_6MatrixIfLi3ELi1ELi0ELi3ELi1EEEE11squaredNormEv
00001820 W _ZNK5Eigen9DenseBaseINS_6MatrixIfLi4ELi1ELi0ELi4ELi1EEEE3sumEv
00001840 W _ZN5Eigen8internal15call_assignmentINS_6MatrixIfLi4ELi1ELi0ELi4ELi1EEENS_14CwiseNullaryOpINS0_18scalar_constant_opIfEES3_EEEEvRT_RKT0_
00001858 T _ZN15WheelController15initializeStateEv
00001910 T _ZN15WheelController12startControlEv
00001934 T _ZN15WheelController11stopControlEv
00001958 W _ZN5Eigen8internal31generic_dense_assignment_kernelINS0_9evaluatorINS_6MatrixIfLi3ELi1ELi0ELi3ELi1EEEEES5_NS0_13add_assign_opIffEELi0EE11assignCoeffEi
00001988 W _ZN5Eigen8internal31generic_dense_assignment_kernelINS0_9evaluatorINS_6MatrixIfLi3ELi1ELi0ELi3ELi1EEEEENS2_INS_14CwiseNullaryOpINS0_18scalar_constant_opIfEES4_EEEENS0_13mul_assign_opIffEELi0EE11assignCoeffEi
000019b0 t _ZN5Eigen9DenseBaseINS_6MatrixIfLi3ELi1ELi0ELi3ELi1EEEEmLERKf.isra.0
00001a0c W _ZN5Eigen8internal31generic_dense_assignment_kernelINS0_9evaluatorINS_6MatrixIfLi3ELi1ELi0ELi3ELi1EEEEENS2_INS_13CwiseBinaryOpINS0_13scalar_sum_opIffEEKNS6_INS0_17scalar_product_opIffEEKNS_14CwiseNullaryOpINS0_18scalar_constant_opIfEEKS4_EESE_EESI_EEEENS0_9assign_opIffEELi0EE11assignCoeffEi
00001a54 W _ZN5Eigen8internal26call_dense_assignment_loopINS_6MatrixIfLi3ELi1ELi0ELi3ELi1EEENS_13CwiseBinaryOpINS0_13scalar_sum_opIffEEKNS4_INS0_17scalar_product_opIffEEKNS_14CwiseNullaryOpINS0_18scalar_constant_opIfEEKS3_EESC_EESG_EENS0_9assign_opIffEEEEvRT_RKT0_RKT1_
00001ac4 W _ZN5Eigen8internal31generic_dense_assignment_kernelINS0_9evaluatorINS_6MatrixIfLi3ELi1ELi0ELi3ELi1EEEEENS2_INS_13CwiseBinaryOpINS0_17scalar_product_opIffEEKS4_KNS_14CwiseNullaryOpINS0_18scalar_constant_opIfEES9_EEEEEENS0_9assign_opIffEELi0EE11assignCoeffEi
00001af4 W _ZN5Eigen8internal31generic_dense_assignment_kernelINS0_9evaluatorINS_6MatrixIfLi4ELi1ELi0ELi4ELi1EEEEENS2_INS_13CwiseBinaryOpINS0_17scalar_product_opIffEEKS4_S9_EEEENS0_9assign_opIffEELi0EE11assignCoeffEi
00001b2c T _ZN15WheelController17limitAccelerationEf
00001d64 W _ZN5Eigen8internal26call_dense_assignment_loopINS_6MatrixIfLi3ELi1ELi0ELi3ELi1EEES3_NS0_9assign_opIffEEEEvRT_RKT0_RKT1_
00001db8 W _ZN5Eigen8internal31generic_dense_assignment_kernelINS0_9evaluatorINS_6MatrixIfLi3ELi1ELi0ELi3ELi1EEEEENS2_INS_13CwiseBinaryOpINS0_18scalar_quotient_opIffEEKS4_KNS_14CwiseNullaryOpINS0_18scalar_constant_opIfEES9_EEEEEENS0_9assign_opIffEELi0EE11assignCoeffEi
00001de8 W _ZN5Eigen8internal31generic_dense_assignment_kernelINS0_9evaluatorINS_6MatrixIfLi3ELi1ELi0ELi3ELi1EEEEENS2_INS_13CwiseBinaryOpINS0_13scalar_sum_opIffEEKS4_S9_EEEENS0_9assign_opIffEELi0EE11assignCoeffEi
00001e20 W _ZN5Eigen8internal31generic_dense_assignment_kernelINS0_9evaluatorINS_6MatrixIfLi3ELi1ELi0ELi3ELi1EEEEENS2_INS_13CwiseBinaryOpINS0_20scalar_difference_opIffEEKS4_S9_EEEENS0_9assign_opIffEELi0EE11assignCoeffEi
00001e58 W _ZNK5Eigen8internal17product_evaluatorINS_7ProductINS_6MatrixIfLi3ELi3ELi0ELi3ELi3EEENS3_IfLi3ELi1ELi0ELi3ELi1EEELi1EEELi3ENS_10DenseShapeES7_ffE5coeffEi
00001e98 W _ZN5Eigen8internal31generic_dense_assignment_kernelINS0_9evaluatorINS_6MatrixIfLi3ELi1ELi0ELi3ELi1EEEEENS2_INS_7ProductINS3_IfLi3ELi3ELi0ELi3ELi3EEES4_Li1EEEEENS0_9assign_opIffEELi0EE11assignCoeffEi
00001ed0 W _ZN13GravityFilter6updateERKN5Eigen6MatrixIfLi3ELi1ELi0ELi3ELi1EEES4_
0000233c T _ZN15WheelController6updateEbb
00002ad4 t _GLOBAL__sub_I__ZN15WheelController12startControlEv
00002b80 T memcpy
00002ba8 T memset
00002bc8 T alt_load
00002c4c T alt_main
00002c98 T usleep
00002c9c T alt_irq_init
00002cc8 T alt_sys_init
00002ce8 T perf_get_section_time
00002d0c T alt_avalon_spi_command
00002de0 t alt_msgdma_irq
00002ebc T alt_msgdma_open
00002f08 T alt_msgdma_init
00002fdc T VIC_0_VECTOR_TABLE
0000306c T alt_shadow_non_preemptive_interrupt
00003090 T alt_vic_irq_init
0000312c T alt_ic_isr_register
000031a8 T alt_busy_sleep
0000322c T close
0000326c T alt_dcache_flush_all
00003270 T alt_dev_llist_insert
000032dc T _do_ctors
00003324 T _do_dtors
0000336c T alt_find_dev
000033dc T alt_icache_flush_all
000033e0 T atexit
000033f4 T exit
00003414 T memcmp
00003444 T strlen
00003460 T __register_exitproc
0000357c T __call_exitprocs
000036a8 T _exit
000036bc A __CTOR_LIST__
000036c0 A __CTOR_END__
000036c0 A __DTOR_END__
000036c0 A __DTOR_LIST__
000036c0 A __flash_rodata_start
000036c0 A __ram_rodata_start
000036d4 r _ZL25StreamDataDesciptorMotion
000036e4 r _ZL23StreamDataDesciptorAdc2
000036f4 r _ZL25StreamDataDesciptorStatus
00003718 r VEC_SIZE_ARRAY.0
00003738 A __flash_rwdata_start
00003738 A __ram_rodata_end
00008000 A __alt_mem_data_ram_0
00008000 A __ram_rwdata_start
00008000 g msgdma_0
00008060 g vic_0
000080fc g impure_data
000081e0 G _ZN18CentralizedMonitor12_Adc2TimeoutE
000081e4 G alt_msgdma_list
000081ec G alt_errno
000081f0 G _global_impure_ptr
000081f4 A __bss_start
000081f4 A __ram_rwdata_end
000081f4 A _edata
000081f4 S _ZN18CentralizedMonitor17_ParameterTimeoutE
000081f8 S _ZN18CentralizedMonitor11_FaultFlagsE
000081fc S _ZN18CentralizedMonitor11_ErrorFlagsE
00008200 s _ZZN18CentralizedMonitor20DoPeriodicCommonWorkEvE3cnt
00008204 s _ZZN18CentralizedMonitor20DoPeriodicCommonWorkEvE19performance_counter
00008208 S _ZN4Adc26_ValidE
0000820c S _ZN4Adc27_ResultE
00008214 S _ZN4Adc29_SequenceE
00008218 S _ZN4Adc26_StateE
0000821c S _ZN3Imu6_ValidE
0000821d S _ZN3Imu5_BankE
00008220 S _ZN17StreamTransmitter7_DeviceE
00008224 s _ZL14StreamDataAdc2
0000822c s _ZL16StreamDataStatus
00008234 S _ZN15WheelController13_omega_weightE
00008238 S alt_envp
0000823c S alt_argv
00008240 S alt_argc
00008244 S alt_vic_dev_list
00008248 S errno
0000824c S _ZN10DataHolder13_control_dataE
00008284 S _ZN10DataHolder12_motion_dataE
000082f0 S _ZN10DataHolder10_adc2_dataE
000082fc S _ZN12SharedMemory11_ParametersE
00008330 s _ZL16StreamDataMotion
00008384 S _ZN15WheelController20_regeneration_energyE
00008394 S _ZN15WheelController18_ref_wheel_currentE
000083a4 S _ZN15WheelController15_ref_body_accelE
000083b4 S _ZN15WheelController23_ref_body_accel_unlimitE
000083c4 S _ZN15WheelController25_last_body_velocity_errorE
000083d4 S _ZN15WheelController16_torque_observerE
000083e4 S _ZN15WheelController16_velocity_filterE
000083fc S _ZN15WheelController15_gravity_filterE
00008430 s _ZL17LIMIT_ACCEL_INV_K
00008440 s _ZL13LIMIT_ACCEL_K
00008450 A __alt_stack_base
00008450 A __bss_end
00008450 A _end
00008450 A end
00009000 A __alt_data_end
00009000 A __alt_stack_pointer
0000b000 A __alt_mem_data_ram_1
0000b000 D _ZN12SharedMemory13_SharedMemoryE
000101e0 A _gp
