00000000 A __alt_mem_instruction_rom_0
00000000 T __reset
0000000c T _exit
00000020 A __flash_exceptions_start
00000020 A __ram_exceptions_end
00000020 A __ram_exceptions_start
00000020 T _start
00000098 t alt_after_alt_main
0000009c W _ZN15CriticalSectionC1Ev
0000009c W _ZN15CriticalSectionC2Ev
000000b8 W _ZN15CriticalSectionD1Ev
000000b8 W _ZN15CriticalSectionD2Ev
000000d8 T _ZN18CentralizedMonitor5StartEv
00000118 T _ZN18CentralizedMonitor13SetErrorFlagsEm
00000180 T _ZN18CentralizedMonitor12Adc2CallbackEv
000001d0 T _ZN18CentralizedMonitor13SetFaultFlagsEm
00000238 T _ZN18CentralizedMonitor11Pio1HandlerEPv
00000324 T _ZN18CentralizedMonitor23VectorControllerHandlerEPv
00000390 T _ZN18CentralizedMonitor22MotorControllerHandlerEPv
00000400 T _ZN18CentralizedMonitor24ResetMotorInterruptFlagsEv
00000428 T _ZN18CentralizedMonitor10InitializeEv
000004dc T _ZN18CentralizedMonitor15ClearErrorFlagsEv
000005bc T _ZN18CentralizedMonitor20DoPeriodicCommonWorkEv
00000858 T _ZN18CentralizedMonitor12TimerHandlerEPv
00000884 T _ZN18CentralizedMonitor11Pio0HandlerEPv
000008a4 T _ZN10DataHolder30FetchRegistersOnPreControlLoopEv
00000b18 T _ZN10DataHolder15FetchAdc2ResultEv
00000b58 T _ZN17DribbleController12StartControlEv
00000b70 T _ZN17DribbleController11StopControlEv
00000b90 T _ZN17DribbleController6UpdateEbb
00000c8c W _ZN4Adc213AwaitCompleteEv
00000ca0 T _ZN4Adc220StartConversionAsyncEi
00000cec T _ZN4Adc25StartEv
00000d28 T _ZN4Adc27HandlerEPv
00000e98 T _ZN4Adc212ReadRegisterEiPt
00000f00 T _ZN4Adc210InitializeEv
00000f3c T _ZN3Imu7SetBankEm
00000f8c T _ZN3Imu12ReadRegisterEm
00000fec T _ZN3Imu13WriteRegisterEmh
00001050 T _ZN3Imu10InitializeEv
00001134 T main
000011a0 T _ZNK24MsgdmaTransmitDescriptor13TransmitAsyncEP14alt_msgdma_dev
00001284 T _ZN12SharedMemory16UpdateParametersEv
00001328 T _ZN12SharedMemory15ClearParametersEv
00001368 T _ZN17StreamTransmitter14TransmitStatusEv
00001388 T _ZN17StreamTransmitter12TransmitAdc2ERK10Adc2Data_t
000013bc T _ZN17StreamTransmitter14TransmitMotionERK12MotionData_tRK13ControlData_ti
000015f0 W _ZN15WheelController27VelocityVectorDecompositionERK17MachineVelocity_t
00001650 T _ZN15WheelController15InitializeStateEv
000016f4 T _ZN15WheelController19InitializeRegistersEv
0000173c T _ZN15WheelController12StartControlEv
00001760 T _ZN15WheelController11StopControlEv
00001770 T _ZN15WheelController13SteadyCurrentERK17MachineVelocity_t
000017b4 T _ZN15WheelController20MaximumWheelVelocityERK17MachineVelocity_t
00001800 T _ZN15WheelController23EstimateMachineVelocityERK15WheelVelocity_tRKN12MotionData_t5Imu_tE
0000197c T _ZN15WheelController10DetectSlipERK15WheelVelocity_tPKf
00001a1c T _ZN15WheelController6UpdateEbb
000023d8 T memcpy
00002400 T memset
00002420 T alt_load
000024a4 T alt_main
000024d4 T usleep
000024d8 T alt_irq_init
00002504 T alt_sys_init
00002524 T perf_get_section_time
00002548 T alt_avalon_spi_command
0000261c t alt_msgdma_irq
000026f8 T alt_msgdma_open
00002744 T alt_msgdma_init
00002818 T VIC_0_VECTOR_TABLE
000028a8 T alt_shadow_non_preemptive_interrupt
000028cc T alt_vic_irq_init
00002968 T alt_ic_isr_register
000029e4 T alt_busy_sleep
00002a68 T alt_dcache_flush_all
00002a6c T alt_dev_llist_insert
00002ad8 T _do_ctors
00002b20 T alt_find_dev
00002b90 T alt_icache_flush_all
00002b94 T memcmp
00002bc4 T strlen
00002be0 A __CTOR_END__
00002be0 A __CTOR_LIST__
00002be0 A __flash_rodata_start
00002be0 A __ram_rodata_start
00002bf4 r _ZL25StreamDataDesciptorMotion
00002c04 r _ZL23StreamDataDesciptorAdc2
00002c14 r _ZL25StreamDataDesciptorStatus
00002c24 r _ZL18FORCE_MATRIX_TABLE
00002c64 r _ZL17FORCE_MATRIX_1001
00002c94 r _ZL17FORCE_MATRIX_1100
00002cc4 r _ZL17FORCE_MATRIX_0110
00002cf4 r _ZL17FORCE_MATRIX_0011
00002d24 r _ZL17FORCE_MATRIX_1000
00002d54 r _ZL17FORCE_MATRIX_0100
00002d84 r _ZL17FORCE_MATRIX_0010
00002db4 r _ZL17FORCE_MATRIX_0001
00002de4 r _ZL17FORCE_MATRIX_0000
00002e28 r VEC_SIZE_ARRAY.0
00002e48 A __flash_rwdata_start
00002e48 A __ram_rodata_end
00008000 A __alt_mem_data_ram_0
00008000 A __ram_rwdata_start
00008000 g msgdma_0
00008060 g vic_0
000080fc G _ZN18CentralizedMonitor12_Adc2TimeoutE
00008100 G alt_msgdma_list
00008108 G alt_errno
0000810c A __bss_start
0000810c A __ram_rwdata_end
0000810c A _edata
0000810c S _ZN18CentralizedMonitor17_ParameterTimeoutE
00008110 S _ZN18CentralizedMonitor11_FaultFlagsE
00008114 S _ZN18CentralizedMonitor11_ErrorFlagsE
00008118 s _ZZN18CentralizedMonitor20DoPeriodicCommonWorkEvE3cnt
0000811c s _ZZN18CentralizedMonitor20DoPeriodicCommonWorkEvE19performance_counter
00008120 S _ZN4Adc26_ValidE
00008124 S _ZN4Adc27_ResultE
0000812c S _ZN4Adc29_SequenceE
00008130 S _ZN4Adc26_StateE
00008134 S _ZN3Imu6_ValidE
00008135 S _ZN3Imu5_BankE
00008138 S _ZN17StreamTransmitter7_DeviceE
0000813c s _ZL14StreamDataAdc2
00008144 s _ZL16StreamDataStatus
0000814c S _ZN15WheelController10_SlipFlagsE
00008150 s _ZZN15WheelController23EstimateMachineVelocityERK15WheelVelocity_tRKN12MotionData_t5Imu_tEE25machine_velocity_sigma_vy
00008154 s _ZZN15WheelController23EstimateMachineVelocityERK15WheelVelocity_tRKN12MotionData_t5Imu_tEE25machine_velocity_sigma_vx
00008158 s _ZZN15WheelController23EstimateMachineVelocityERK15WheelVelocity_tRKN12MotionData_t5Imu_tEE23slip_velocity_peak_hold
0000815c s _ZZN15WheelController6UpdateEbbE10last_state
00008160 S alt_envp
00008164 S alt_argv
00008168 S alt_argc
0000816c S alt_vic_dev_list
00008170 S errno
00008174 S _ZN10DataHolder12_ControlDataE
000081b4 S _ZN10DataHolder11_MotionDataE
000081fc S _ZN10DataHolder9_Adc2DataE
00008208 S _ZN12SharedMemory11_ParametersE
0000822c s _ZL16StreamDataMotion
00008274 S _ZN15WheelController17_LpfWheelVelocityE
00008294 S _ZN15WheelController16_MachineVelocityE
000082a0 S _ZN15WheelController14_SlipIndicatorE
000082b0 S _ZN15WheelController22_LastCompensationForceE
000082c0 S _ZN15WheelController13_CurrentLimitE
000082d0 S _ZN15WheelController19_RegenerationEnergyE
000082e0 S _ZN15WheelController26_CurrentReferenceOfMachineE
000082f0 S _ZN15WheelController24_CurrentReferenceOfWheelE
00008300 S _ZN15WheelController17_CurrentReferenceE
00008310 S _ZN15WheelController15_LastSpeedErrorE
00008320 S _ZN15WheelController15_SpeedReferenceE
00008330 S _ZN15WheelController25_MachineVelocityReferenceE
0000833c A __alt_stack_base
0000833c A __bss_end
0000833c A _end
0000833c A end
00009000 A __alt_data_end
00009000 A __alt_stack_pointer
0000b000 A __alt_mem_data_ram_1
0000b000 D _ZN12SharedMemory13_SharedMemoryE
000100fc A _gp
