
controller.elf:     file format elf32-littlenios2
controller.elf
architecture: nios2:r1, flags 0x00000112:
EXEC_P, HAS_SYMS, D_PAGED
start address 0x00000020

Program Header:
    LOAD off    0x00001000 vaddr 0x00000000 paddr 0x00000000 align 2**12
         filesz 0x00000020 memsz 0x00000020 flags r-x
    LOAD off    0x00001020 vaddr 0x00000020 paddr 0x00000020 align 2**12
         filesz 0x000060d4 memsz 0x000060d4 flags r-x
    LOAD off    0x00008000 vaddr 0x00008000 paddr 0x000060f4 align 2**12
         filesz 0x00000290 memsz 0x0000036c flags rw-
    LOAD off    0x00009000 vaddr 0x0000b000 paddr 0x0000b000 align 2**12
         filesz 0x00000028 memsz 0x00000028 flags rw-

Sections:
Idx Name          Size      VMA       LMA       File off  Algn
  0 .entry        00000020  00000000  00000000  00001000  2**5
                  CONTENTS, ALLOC, LOAD, READONLY, CODE
  1 .exceptions   00000000  00000020  00000020  00009028  2**0
                  CONTENTS
  2 .shared       00000028  0000b000  0000b000  00009000  2**2
                  CONTENTS, ALLOC, LOAD, DATA
  3 .text         00005cf8  00000020  00000020  00001020  2**2
                  CONTENTS, ALLOC, LOAD, READONLY, CODE
  4 .rodata       000003dc  00005d18  00005d18  00006d18  2**2
                  CONTENTS, ALLOC, LOAD, READONLY, DATA
  5 .rwdata       00000290  00008000  000060f4  00008000  2**4
                  CONTENTS, ALLOC, LOAD, DATA, SMALL_DATA
  6 .bss          000000dc  00008290  00006384  00008290  2**2
                  ALLOC, SMALL_DATA
  7 .instruction_rom_0 00000000  00006384  00006384  00009028  2**0
                  CONTENTS
  8 .data_ram_0   00000000  0000836c  0000836c  00009028  2**0
                  CONTENTS
  9 .data_ram_1   00000000  0000b028  0000b028  00009028  2**0
                  CONTENTS
 10 .comment      0000002d  00000000  00000000  00009028  2**0
                  CONTENTS, READONLY
 11 .debug_aranges 00000fb8  00000000  00000000  00009058  2**3
                  CONTENTS, READONLY, DEBUGGING, OCTETS
 12 .debug_info   00027b7c  00000000  00000000  0000a010  2**0
                  CONTENTS, READONLY, DEBUGGING, OCTETS
 13 .debug_abbrev 0000b392  00000000  00000000  00031b8c  2**0
                  CONTENTS, READONLY, DEBUGGING, OCTETS
 14 .debug_line   00010af3  00000000  00000000  0003cf1e  2**0
                  CONTENTS, READONLY, DEBUGGING, OCTETS
 15 .debug_frame  00002098  00000000  00000000  0004da14  2**2
                  CONTENTS, READONLY, DEBUGGING, OCTETS
 16 .debug_str    0000aed5  00000000  00000000  0004faac  2**0
                  CONTENTS, READONLY, DEBUGGING, OCTETS
 17 .debug_loc    0000df1d  00000000  00000000  0005a981  2**0
                  CONTENTS, READONLY, DEBUGGING, OCTETS
 18 .debug_alt_sim_info 00000040  00000000  00000000  000688a0  2**2
                  CONTENTS, READONLY, DEBUGGING, OCTETS
 19 .debug_ranges 00002088  00000000  00000000  000688e0  2**3
                  CONTENTS, READONLY, DEBUGGING, OCTETS
 20 .thread_model 00000003  00000000  00000000  0006ec32  2**0
                  CONTENTS, READONLY
 21 .cpu          00000006  00000000  00000000  0006ec35  2**0
                  CONTENTS, READONLY
 22 .qsys         00000001  00000000  00000000  0006ec3b  2**0
                  CONTENTS, READONLY
 23 .simulation_enabled 00000001  00000000  00000000  0006ec3c  2**0
                  CONTENTS, READONLY
 24 .sysid_hash   00000004  00000000  00000000  0006ec3d  2**0
                  CONTENTS, READONLY
 25 .sysid_base   00000004  00000000  00000000  0006ec41  2**0
                  CONTENTS, READONLY
 26 .sysid_time   00000004  00000000  00000000  0006ec45  2**0
                  CONTENTS, READONLY
 27 .stderr_dev   0000000b  00000000  00000000  0006ec49  2**0
                  CONTENTS, READONLY
 28 .stdin_dev    0000000b  00000000  00000000  0006ec54  2**0
                  CONTENTS, READONLY
 29 .stdout_dev   0000000b  00000000  00000000  0006ec5f  2**0
                  CONTENTS, READONLY
 30 .sopc_system_name 0000000a  00000000  00000000  0006ec6a  2**0
                  CONTENTS, READONLY
 31 .quartus_project_dir 00000029  00000000  00000000  0006ec74  2**0
                  CONTENTS, READONLY
 32 .jdi          00004c4b  00000000  00000000  0006ec9d  2**0
                  CONTENTS, READONLY
 33 .sopcinfo     000d98bc  00000000  00000000  000738e8  2**0
                  CONTENTS, READONLY
SYMBOL TABLE:
00000000 l    d  .entry	00000000 .entry
00000020 l    d  .exceptions	00000000 .exceptions
0000b000 l    d  .shared	00000000 .shared
00000020 l    d  .text	00000000 .text
00005d18 l    d  .rodata	00000000 .rodata
00008000 l    d  .rwdata	00000000 .rwdata
00008290 l    d  .bss	00000000 .bss
00006384 l    d  .instruction_rom_0	00000000 .instruction_rom_0
0000836c l    d  .data_ram_0	00000000 .data_ram_0
0000b028 l    d  .data_ram_1	00000000 .data_ram_1
00000000 l    d  .comment	00000000 .comment
00000000 l    d  .debug_aranges	00000000 .debug_aranges
00000000 l    d  .debug_info	00000000 .debug_info
00000000 l    d  .debug_abbrev	00000000 .debug_abbrev
00000000 l    d  .debug_line	00000000 .debug_line
00000000 l    d  .debug_frame	00000000 .debug_frame
00000000 l    d  .debug_str	00000000 .debug_str
00000000 l    d  .debug_loc	00000000 .debug_loc
00000000 l    d  .debug_alt_sim_info	00000000 .debug_alt_sim_info
00000000 l    d  .debug_ranges	00000000 .debug_ranges
00000000 l    df *ABS*	00000000 c:/work/Robocup/phoenix-firmware/FPGA/App/software/controller_bsp//obj/HAL/src/crt0.o
00000098 l       .text	00000000 alt_after_alt_main
00000000 l    df *ABS*	00000000 shared_memory.cpp
00000000 l    df *ABS*	00000000 microshell.c
0000009c l     F .text	00000068 print_buffer
00000104 l     F .text	00000034 print_return
00000138 l     F .text	00000068 cursor_left
000001a0 l     F .text	00000064 cursor_right
00000000 l    df *ABS*	00000000 mscore.c
00005d5c l     O .rodata	00000070 kmlist
00000000 l    df *ABS*	00000000 mscmd.c
00000000 l    df *ABS*	00000000 msopt.c
00000000 l    df *ABS*	00000000 ntlibc.c
00000000 l    df *ABS*	00000000 centralized_monitor.cpp
0000829c l     O .bss	00000004 _ZZN18CentralizedMonitor13Adc2KeepAliveEiE3cnt
00008298 l     O .bss	00000004 _ZZN18CentralizedMonitor20DoPeriodicCommonWorkEvE3cnt
00000000 l    df *ABS*	00000000 dribble_controller.cpp
00000000 l    df *ABS*	00000000 adc2.cpp
00000000 l    df *ABS*	00000000 imu.cpp
00000000 l    df *ABS*	00000000 main.cpp
00001848 l     F .text	00000010 _ZZ4mainENUlcE_4_FUNEc
00001858 l     F .text	00000018 _ZZ4mainENUlvE0_4_FUNEv
00001870 l     F .text	0000001c _ZL13command_faultP5MSOPTPv
0000188c l     F .text	00000014 _ZL13command_clearP5MSOPTPv
000018a0 l     F .text	0000002c _ZL12command_adc2P5MSOPTPv
000018cc l     F .text	00000088 _ZL14command_statusP5MSOPTPv
00001954 l     F .text	00000050 _ZL11command_imuP5MSOPTPv
000019a4 l     F .text	00000080 _ZL10command_kiP5MSOPTPv
00001a24 l     F .text	00000080 _ZL10command_kpP5MSOPTPv
00001aa4 l     F .text	00000098 _ZL14command_switchP5MSOPTPv
00005edc l     O .rodata	00000040 _ZZ4mainE13command_table
00000000 l    df *ABS*	00000000 msgdma.cpp
00000000 l    df *ABS*	00000000 stream_transmitter.cpp
000082bc l     O .bss	00000008 _ZL16StreamDataStatus
00005f3c l     O .rodata	00000010 _ZL25StreamDataDesciptorStatus
000082b8 l     O .bss	00000004 _ZL14StreamDataAdc2
00005f2c l     O .rodata	00000010 _ZL23StreamDataDesciptorAdc2
0000830c l     O .bss	00000030 _ZL16StreamDataMotion
00005f1c l     O .rodata	00000010 _ZL25StreamDataDesciptorMotion
00000000 l    df *ABS*	00000000 wheel_controller.cpp
00000000 l    df *ABS*	00000000 eh_personality.cc
00002364 l     F .text	00000090 _ZL16get_adjusted_ptrPKSt9type_infoS1_PPv
000023f4 l     F .text	000001e8 _ZL28read_encoded_value_with_basehjPKhPj
000025dc l     F .text	00000070 _ZL21base_of_encoded_valuehP15_Unwind_Context
0000264c l     F .text	0000012c _ZL17parse_lsda_headerP15_Unwind_ContextPKhP16lsda_header_info
00002778 l     F .text	00000110 _ZL20check_exception_specP16lsda_header_infoPKSt9type_infoPvl
00000000 l    df *ABS*	00000000 eh_terminate.cc
00000000 l    df *ABS*	00000000 eh_throw.cc
000031b4 l     F .text	00000068 _ZL23__gxx_exception_cleanup19_Unwind_Reason_CodeP17_Unwind_Exception
00000000 l    df *ABS*	00000000 eh_alloc.cc
00003364 l     F .text	000000cc _ZN12_GLOBAL__N_14pool4freeEPv.constprop.0
0000835c l     O .bss	00000010 _ZN12_GLOBAL__N_114emergency_poolE
00003430 l     F .text	00000090 _ZN12_GLOBAL__N_14pool8allocateEj.constprop.0
00003540 l     F .text	00000064 _GLOBAL__sub_I__ZN9__gnu_cxx9__freeresEv
00000000 l    df *ABS*	00000000 eh_call.cc
00000000 l    df *ABS*	00000000 eh_catch.cc
00000000 l    df *ABS*	00000000 eh_exception.cc
00000000 l    df *ABS*	00000000 eh_globals.cc
000082cc l     O .bss	00000008 _ZL10eh_globals
00000000 l    df *ABS*	00000000 si_class_type_info.cc
00000000 l    df *ABS*	00000000 tinfo.cc
00000000 l    df *ABS*	00000000 class_type_info.cc
00000000 l    df *ABS*	00000000 del_ops.cc
00000000 l    df *ABS*	00000000 del_op.cc
00000000 l    df *ABS*	00000000 sf_fmax.c
00000000 l    df *ABS*	00000000 sf_fmin.c
00000000 l    df *ABS*	00000000 sf_fpclassify.c
00000000 l    df *ABS*	00000000 gesf2.c
00000000 l    df *ABS*	00000000 lesf2.c
00000000 l    df *ABS*	00000000 unwind-sjlj.c
00003f90 l     F .text	00000114 _Unwind_ForcedUnwind_Phase2
000082d4 l     O .bss	00000004 fc_static
000040a4 l     F .text	000000d8 _Unwind_RaiseException_Phase2
0000417c l     F .text	0000002c uw_install_context.constprop.0.isra.0
00000000 l    df *ABS*	00000000 abort.c
00000000 l    df *ABS*	00000000 malloc.c
00000000 l    df *ABS*	00000000 memcpy.c
00000000 l    df *ABS*	00000000 memmove.c
00000000 l    df *ABS*	00000000 memset.c
00000000 l    df *ABS*	00000000 nano-mallocr.c
00000000 l    df *ABS*	00000000 nano-mallocr.c
00000000 l    df *ABS*	00000000 printf.c
00000000 l    df *ABS*	00000000 sbrkr.c
00000000 l    df *ABS*	00000000 signal.c
00000000 l    df *ABS*	00000000 signalr.c
00000000 l    df *ABS*	00000000 strcmp.c
00000000 l    df *ABS*	00000000 vfprintf.c
000049dc l     F .text	0000006c print_repeat
00000000 l    df *ABS*	00000000 fvwrite_small_dev.c
00000000 l    df *ABS*	00000000 strlen.c
00000000 l    df *ABS*	00000000 writer.c
00000000 l    df *ABS*	00000000 lib2-divmod.c
00000000 l    df *ABS*	00000000 alt_getchar.c
00000000 l    df *ABS*	00000000 alt_getpid.c
00000000 l    df *ABS*	00000000 alt_kill.c
00000000 l    df *ABS*	00000000 alt_load.c
00000000 l    df *ABS*	00000000 alt_main.c
00000000 l    df *ABS*	00000000 alt_malloc_lock.c
00000000 l    df *ABS*	00000000 alt_putchar.c
00000000 l    df *ABS*	00000000 alt_putstr.c
00000000 l    df *ABS*	00000000 alt_sbrk.c
00008274 l     O .rwdata	00000004 heap_end
00000000 l    df *ABS*	00000000 alt_usleep.c
00000000 l    df *ABS*	00000000 alt_write.c
00000000 l    df *ABS*	00000000 alt_sys_init.c
00008150 l     O .rwdata	0000009c vic_0
000080f0 l     O .rwdata	00000060 msgdma_0
00000000 l    df *ABS*	00000000 altera_avalon_jtag_uart_read.c
00000000 l    df *ABS*	00000000 altera_avalon_jtag_uart_write.c
00000000 l    df *ABS*	00000000 altera_avalon_performance_counter.c
00000000 l    df *ABS*	00000000 altera_avalon_spi.c
00000000 l    df *ABS*	00000000 altera_msgdma.c
00005724 l     F .text	000000dc alt_msgdma_irq
00000000 l    df *ABS*	00000000 altera_vic_irq_init.c
000060c8 l     O .rodata	00000020 VEC_SIZE_ARRAY.0
00000000 l    df *ABS*	00000000 altera_vic_isr_register.c
00000000 l    df *ABS*	00000000 alt_busy_sleep.c
00000000 l    df *ABS*	00000000 alt_dcache_flush_all.c
00000000 l    df *ABS*	00000000 alt_dev.c
00005b74 l     F .text	00000008 alt_dev_null_write
00000000 l    df *ABS*	00000000 alt_dev_llist_insert.c
00000000 l    df *ABS*	00000000 alt_do_ctors.c
00000000 l    df *ABS*	00000000 alt_find_dev.c
00000000 l    df *ABS*	00000000 alt_icache_flush_all.c
00000000 l    df *ABS*	00000000 memcmp.c
00000000 l    df *ABS*	00000000 impure.c
00008000 l     O .rwdata	000000e4 impure_data
00000000 l    df *ABS*	00000000 eh_unex_handler.cc
00000000 l    df *ABS*	00000000 eh_term_handler.cc
00000000 l    df *ABS*	00000000 alt_errno.c
00000000 l    df *ABS*	00000000 int_errno.c
00003518 g     F .text	00000028 __cxa_free_exception
00003a64 g     F .text	00000008 _ZNKSt9type_info15__is_function_pEv
00003188 g     F .text	00000014 _ZSt10unexpectedv
000053d4 g     F .text	00000030 alt_main
00001344  w    F .text	00000014 _ZN4Adc213AwaitCompleteEv
00004228 g     F .text	00000020 .hidden _Unwind_GetIPInfo
000060f4 g       *ABS*	00000000 __flash_rwdata_start
00000258 g     F .text	00000368 microshell_getline
000007d4 g     F .text	00000110 msopt_init
000032e0 g     F .text	00000084 __cxa_rethrow
000041c0 g     F .text	00000010 .hidden _Unwind_SjLj_Unregister
00004218 g     F .text	00000010 .hidden _Unwind_GetIP
0000836c g       *ABS*	00000000 __alt_heap_start
00004948 g     F .text	0000004c _kill_r
000082a2 g     O .bss	00000004 _ZN4Adc27_ResultE
000047f4 g     F .text	00000048 printf
0000090c g     F .text	00000070 msopt_get_argv
00003798 g     F .text	00000010 _ZN10__cxxabiv120__si_class_type_infoD2Ev
00005fe8  w    O .rodata	00000025 _ZTSN10__cxxabiv120__si_class_type_infoE
000082b4 g     O .bss	00000004 _ZN17StreamTransmitter7_DeviceE
0000165c g     F .text	00000050 _ZN3Imu7SetBankEm
00005408 g     F .text	00000004 __malloc_unlock
00004514 g     F .text	00000060 memmove
000009dc g     F .text	000000bc ntlibc_atoi
000010e8 g     F .text	000000ec _ZN18CentralizedMonitor20DoPeriodicCommonWorkEv
00000b10 g     F .text	00000040 _ZN18CentralizedMonitor5StartEv
000016ac g     F .text	00000060 _ZN3Imu12ReadRegisterEm
00005458 g     F .text	00000038 alt_putstr
00005fd4  w    O .rodata	00000014 _ZTVSt13bad_exception
00000000 g     F .entry	0000000c __reset
000013e0 g     F .text	00000180 _ZN4Adc27HandlerEPv
00004264 g     F .text	00000008 .hidden _Unwind_GetRegionStart
00008290 g     O .bss	00000004 _ZN18CentralizedMonitor11_FaultFlagsE
00000020 g       *ABS*	00000000 __flash_exceptions_start
000082e0 g     O .bss	00000004 errno
0000834c g     O .bss	00000010 _ZN15WheelController15_LastSpeedErrorE
0000442c g     F .text	00000088 .hidden _Unwind_Backtrace
000082e8 g     O .bss	00000004 alt_argv
00010244 g       *ABS*	00000000 _gp
000054f8 g     F .text	00000004 usleep
00001220 g     F .text	00000018 _ZN17DribbleController12StartControlEv
00005254 g     F .text	00000008 getpid
000082a8 g     O .bss	00000004 _ZN4Adc29_SequenceE
00002f20 g     F .text	0000017c __cxa_call_unexpected
000081ec g     O .rwdata	00000030 alt_fd_list
0000434c g     F .text	00000044 .hidden _Unwind_SjLj_ForcedUnwind
00005920 g       .text	00000000 VIC_0_VECTOR_TABLE
000041e8 g     F .text	00000018 .hidden _Unwind_GetCFA
00005c30 g     F .text	00000070 alt_find_dev
000044ec g     F .text	00000028 memcpy
00000204 g     F .text	00000054 microshell_init
00003ae4 g     F .text	00000018 _ZNK10__cxxabiv117__class_type_info20__do_find_public_srcEiPKvPKS0_S2_
00003afc g     F .text	00000010 _ZN10__cxxabiv117__class_type_infoD1Ev
00001250 g     F .text	00000004 _ZN17DribbleController17Adc2UpdateCurrentEi
000055a4 g     F .text	00000058 altera_avalon_jtag_uart_read
000044cc g     F .text	00000010 malloc
00005154 g     F .text	00000064 .hidden __udivsi3
00004884 g     F .text	000000b4 _raise_r
00003edc g     F .text	000000b4 .hidden __lesf2
00001238 g     F .text	00000018 _ZN17DribbleController11StopControlEv
000082b0 g     O .bss	00000001 _ZN3Imu6_ValidE
00004994 g     F .text	00000004 _getpid_r
00003dd0 g     F .text	00000054 __fpclassifyf
00001dc0 g     F .text	000000a4 _ZN12SharedMemory16UpdateParametersEv
00003bb0 g     F .text	0000009c _ZNK10__cxxabiv117__class_type_info10__do_catchEPKSt9type_infoPPvj
000022ec g     F .text	0000005c _ZN15WheelController8SetGainsEff
0000483c g     F .text	00000048 _sbrk_r
000006f0 g     F .text	00000014 mscmd_init
0000601c  w    O .rodata	0000002c _ZTVN10__cxxabiv120__si_class_type_infoE
00003b44 g     F .text	0000006c _ZNK10__cxxabiv117__class_type_info11__do_upcastEPKS0_PKvRNS0_15__upcast_resultE
00003d14 g     F .text	00000004 _ZdlPv
0000836c g       *ABS*	00000000 __bss_end
00005214 g     F .text	00000040 alt_getchar
000041a8 g     F .text	00000018 .hidden _Unwind_SjLj_Register
0000584c g     F .text	000000d4 alt_msgdma_init
000044b4 g     F .text	00000018 abort
000082ac g     O .bss	00000004 _ZN4Adc26_StateE
000036b4 g     F .text	000000b4 __cxa_end_catch
00003768 g     F .text	00000004 _ZNSt13bad_exceptionD2Ev
0000206c g     F .text	0000007c _ZN15WheelController12StartControlEv
00001e64 g     F .text	00000040 _ZN12SharedMemory15ClearParametersEv
00002348 g     F .text	0000001c _ZN15WheelController8GetGainsEPfS0_
00003164 g     F .text	00000014 _ZSt9terminatev
0000821c g     O .rwdata	00000028 alt_dev_null
000082c8 g     O .bss	00000004 _ZN15WheelController11_SpeedGainPE
00006058  w    O .rodata	00000022 _ZTSN10__cxxabiv117__class_type_infoE
00005b70 g     F .text	00000004 alt_dcache_flush_all
0000824c  w    O .rwdata	00000008 _ZTISt9exception
00000a98  w    F .text	0000001c _ZN15CriticalSectionC1Ev
000082a0 g     O .bss	00000001 _ZN4Adc26_ValidE
000059b0 g       .text	00000000 alt_shadow_non_preemptive_interrupt
00008290 g       *ABS*	00000000 __ram_rwdata_end
00003a60 g     F .text	00000004 _ZNSt9type_infoD1Ev
00008284 g     O .rwdata	00000008 alt_dev_list
00000ecc g     F .text	00000028 _ZN18CentralizedMonitor24ResetMotorInterruptFlagsEv
000054fc g     F .text	0000005c write
00003e24 g     F .text	000000b8 .hidden __gtsf2
000060f4 g       *ABS*	00000000 __ram_rodata_end
00003d10 g     F .text	00000004 _ZdlPvj
00008278 g     O .rwdata	00000004 jtag_uart_0
0000525c g     F .text	000000f4 kill
000051b8 g     F .text	0000005c .hidden __umodsi3
0000321c g     F .text	00000064 __cxa_init_primary_exception
0000319c g     F .text	0000000c _ZSt13get_terminatev
0000836c g       *ABS*	00000000 end
00004414 g     F .text	00000018 .hidden _Unwind_DeleteException
00003c4c g     F .text	000000c4 _ZNK10__cxxabiv117__class_type_info12__do_dyncastEiNS0_10__sub_kindEPKS0_PKvS3_S5_RNS0_16__dyncast_resultE
00005d11 g       *ABS*	00000000 __CTOR_LIST__
00009000 g       *ABS*	00000000 __alt_stack_pointer
00003a6c g     F .text	00000078 _ZNK10__cxxabiv117__class_type_info11__do_upcastEPKS0_PPv
000055fc g     F .text	00000030 altera_avalon_jtag_uart_write
00005f70  w    O .rodata	00000012 _ZTSSt13bad_exception
00004a48 g     F .text	000004ec ___vfprintf_internal_r
00004594 g     F .text	00000100 _free_r
00000c64 g     F .text	000000a0 _ZN18CentralizedMonitor13SetFaultFlagsEm
00000b50 g     F .text	000000a0 _ZN18CentralizedMonitor13SetErrorFlagsEm
00000020 g     F .text	0000007c _start
00006048  w    O .rodata	0000000d _ZTSSt9type_info
00005650 g     F .text	000000d4 alt_avalon_spi_command
00008000 g       *ABS*	00000000 __alt_mem_data_ram_0
00005584 g     F .text	00000020 alt_sys_init
0000376c g     F .text	0000000c _ZGTtNKSt13bad_exception4whatEv
00000e5c g     F .text	00000070 _ZN18CentralizedMonitor22MotorControllerHandlerEPv
000037e0 g     F .text	00000160 _ZNK10__cxxabiv120__si_class_type_info12__do_dyncastEiNS_17__class_type_info10__sub_kindEPKS1_PKvS4_S6_RNS1_16__dyncast_resultE
00000df0 g     F .text	0000006c _ZN18CentralizedMonitor23VectorControllerHandlerEPv
0000b000 g     O .shared	00000028 _ZN12SharedMemory13_SharedMemoryE
00008000 g       *ABS*	00000000 __ram_rwdata_start
00004284 g     F .text	000000c8 .hidden _Unwind_SjLj_RaiseException
00005d18 g       *ABS*	00000000 __ram_rodata_start
00000ef4 g     F .text	000000c8 _ZN18CentralizedMonitor10InitializeEv
00004390 g     F .text	00000044 .hidden _Unwind_SjLj_Resume
00003a60 g     F .text	00000004 _ZNSt9type_infoD2Ev
000039dc g     F .text	00000084 _ZNK10__cxxabiv120__si_class_type_info11__do_upcastEPKNS_17__class_type_infoEPKvRNS1_15__upcast_resultE
0000833c g     O .bss	00000010 _ZN15WheelController21_LastCurrentReferenceE
00005aec g     F .text	00000084 alt_busy_sleep
0000825c  w    O .rwdata	00000008 _ZTIN10__cxxabiv119__foreign_exceptionE
0000562c g     F .text	00000024 perf_get_section_time
00005ca4 g     F .text	00000030 memcmp
0000836c g       *ABS*	00000000 __alt_stack_base
00003798 g     F .text	00000010 _ZN10__cxxabiv120__si_class_type_infoD1Ev
000043d4 g     F .text	00000040 .hidden _Unwind_SjLj_Resume_or_Rethrow
00003a64 g     F .text	00000008 _ZNKSt9type_info14__is_pointer_pEv
00008244 g     O .rwdata	00000004 _ZN18CentralizedMonitor12_Adc2TimeoutE
00000ab4  w    F .text	0000005c _ZN15CriticalSectionD1Ev
00005b7c g     F .text	0000006c alt_dev_llist_insert
00005404 g     F .text	00000004 __malloc_lock
00005490 g     F .text	00000068 sbrk
00006088  w    O .rodata	0000002c _ZTVN10__cxxabiv117__class_type_infoE
00003280 g     F .text	00000060 __cxa_throw
00001ee4 g     F .text	00000188 _ZN17StreamTransmitter14TransmitMotionEi
00004248 g     F .text	00000010 .hidden _Unwind_SetIP
00004f4c g     F .text	000000a8 __sfvwrite_small_dev
00008290 g       *ABS*	00000000 __bss_start
00003d74 g     F .text	0000005c fminf
00004574 g     F .text	00000020 memset
00003d18 g     F .text	0000005c fmaxf
00005800 g     F .text	0000004c alt_msgdma_open
00001b3c g     F .text	0000012c main
00001770 g     F .text	000000d8 _ZN3Imu10InitializeEv
000082e4 g     O .bss	00000004 alt_envp
00003780 g     F .text	0000000c __cxa_get_globals_fast
00003edc g     F .text	000000b4 .hidden __ltsf2
00000a98  w    F .text	0000001c _ZN15CriticalSectionC2Ev
00000d04 g     F .text	000000ec _ZN18CentralizedMonitor11Pio1HandlerEPv
00009000 g       *ABS*	00000000 __alt_heap_limit
000082c4 g     O .bss	00000004 _ZN15WheelController11_SpeedGainIE
00004694 g     F .text	00000160 _malloc_r
0000376c g     F .text	0000000c _ZNKSt13bad_exception4whatEv
00002128 g     F .text	000001c4 _ZN15WheelController6UpdateEb
0000828c g     O .rwdata	00000004 alt_errno
00000fbc g     F .text	0000012c _ZN18CentralizedMonitor15ClearErrorFlagsEv
0000607c  w    O .rodata	0000000c _ZTIN10__cxxabiv117__class_type_infoE
00001560 g     F .text	00000068 _ZN4Adc212ReadRegisterEiPt
00003768 g     F .text	00000004 _ZNSt13bad_exceptionD1Ev
00005060 g     F .text	00000080 .hidden __divsi3
00005d18 g       *ABS*	00000000 __CTOR_END__
000082f0 g     O .bss	00000004 alt_vic_dev_list
00004998 g     F .text	00000044 strcmp
00005d18 g       *ABS*	00000000 __flash_rodata_start
000013a4 g     F .text	0000003c _ZN4Adc25StartEv
00005558 g     F .text	0000002c alt_irq_init
000037a8 g     F .text	00000038 _ZN10__cxxabiv120__si_class_type_infoD0Ev
00001254 g     F .text	000000f0 _ZN17DribbleController6UpdateEb
00003e24 g     F .text	000000b8 .hidden __gesf2
00005010 g     F .text	00000050 _write_r
0000427c g     F .text	00000008 .hidden _Unwind_GetTextRelBase
000035a4 g     F .text	00000058 __cxa_call_terminate
00008270 g     O .rwdata	00000004 _impure_ptr
00008254  w    O .rwdata	00000008 _ZTIN10__cxxabiv115__forced_unwindE
000082ec g     O .bss	00000004 alt_argc
000005c0 g     F .text	00000034 mscore_init
000031a8 g     F .text	0000000c _ZSt14get_unexpectedv
000059d4 g     F .text	0000009c alt_vic_irq_init
0000426c g     F .text	00000008 .hidden _Unwind_FindEnclosingFunction
00005fb0  w    O .rodata	00000024 _ZTSN10__cxxabiv119__foreign_exceptionE
00004258 g     F .text	0000000c .hidden _Unwind_GetLanguageSpecificData
00000bf0 g     F .text	00000074 _ZN18CentralizedMonitor13Adc2KeepAliveEi
000035fc g     F .text	000000b8 __cxa_begin_catch
00003afc g     F .text	00000010 _ZN10__cxxabiv117__class_type_infoD2Ev
00003178 g     F .text	00000010 _ZN10__cxxabiv112__unexpectedEPFvvE
00000020 g       *ABS*	00000000 __ram_exceptions_start
00003778 g     F .text	00000008 _ZNSt13bad_exceptionD0Ev
00008264 g     O .rwdata	00000004 _ZN10__cxxabiv119__terminate_handlerE
00005a70 g     F .text	0000007c alt_ic_isr_register
000034c0 g     F .text	00000058 __cxa_allocate_exception
00006010  w    O .rodata	0000000c _ZTIN10__cxxabiv120__si_class_type_infoE
00008290 g       *ABS*	00000000 _edata
000020e8 g     F .text	00000040 _ZN15WheelController11StopControlEv
000082b1 g     O .bss	00000001 _ZN3Imu5_BankE
0000836c g       *ABS*	00000000 _end
00001ec4 g     F .text	00000020 _ZN17StreamTransmitter12TransmitAdc2Ev
00002888 g     F .text	00000698 __gxx_personality_sj0
00000020 g       *ABS*	00000000 __ram_exceptions_end
000008e4 g     F .text	00000028 msopt_get_argc
0000170c g     F .text	00000064 _ZN3Imu13WriteRegisterEmh
00000ab4  w    F .text	0000005c _ZN15CriticalSectionD2Ev
0000b000 g       *ABS*	00000000 __alt_mem_data_ram_1
00004200 g     F .text	00000018 .hidden _Unwind_SetGR
00003940 g     F .text	0000009c _ZNK10__cxxabiv120__si_class_type_info20__do_find_public_srcEiPKvPKNS_17__class_type_infoES2_
0000309c g     F .text	000000c8 _ZN10__cxxabiv111__terminateEPFvvE
000050e0 g     F .text	00000074 .hidden __modsi3
00009000 g       *ABS*	00000000 __alt_data_end
00005f84  w    O .rodata	0000000c _ZTISt13bad_exception
00000000 g       *ABS*	00000000 __alt_mem_instruction_rom_0
00008294 g     O .bss	00000004 _ZN18CentralizedMonitor11_ErrorFlagsE
0000000c g       .entry	00000000 _exit
000041d0 g     F .text	00000018 .hidden _Unwind_GetGR
0000378c g     F .text	0000000c __cxa_get_globals
00008248 g     O .rwdata	00000004 _ZN10__cxxabiv120__unexpected_handlerE
0000827c g     O .rwdata	00000008 alt_msgdma_list
00004ff4 g     F .text	0000001c strlen
00008268  w    O .rwdata	00000008 _ZTISt9type_info
0000540c g     F .text	0000004c alt_putchar
000015c8 g     F .text	0000003c _ZN4Adc210InitializeEv
00005f60  w    O .rodata	0000000d _ZTSSt9exception
000082d8 g     O .bss	00000004 __malloc_sbrk_start
00001c68 g     F .text	00000158 _ZNK24MsgdmaTransmitDescriptor13TransmitAsyncEP14alt_msgdma_dev
00000704 g     F .text	000000d0 mscmd_execute
00001358 g     F .text	0000004c _ZN4Adc220StartConversionAsyncEi
00005ca0 g     F .text	00000004 alt_icache_flush_all
00001200 g     F .text	00000020 _ZN18CentralizedMonitor11Pio0HandlerEPv
00004274 g     F .text	00000008 .hidden _Unwind_GetDataRelBase
00001ea4 g     F .text	00000020 _ZN17StreamTransmitter14TransmitStatusEv
000082dc g     O .bss	00000004 __malloc_free_list
00004f34 g     F .text	00000018 __vfprintf_internal
000011d4 g     F .text	0000002c _ZN18CentralizedMonitor12TimerHandlerEPv
00005be8 g     F .text	00000048 _do_ctors
00001604 g     F .text	00000058 _ZN3Imu8ReadDataEP11ImuResult_t
00005f90  w    O .rodata	00000020 _ZTSN10__cxxabiv115__forced_unwindE
00005350 g     F .text	00000084 alt_load
0000097c g     F .text	00000060 ntlibc_strcmp
00004938 g     F .text	00000010 raise
000044dc g     F .text	00000010 free
000005f4 g     F .text	000000fc mscore_push
00003b0c g     F .text	00000038 _ZN10__cxxabiv117__class_type_infoD0Ev
000082f4 g     O .bss	00000018 _ZN12SharedMemory11_ParametersE



Disassembly of section .entry:

00000000 <__reset>:
 * Jump to the _start entry point in the .text section if reset code
 * is allowed or if optimizing for RTL simulation.
 */
#if defined(ALT_ALLOW_CODE_AT_RESET) || defined(ALT_SIM_OPTIMIZE)
    /* Jump to the _start entry point in the .text section. */
    movhi r1, %hi(_start)
   0:	00400034 	movhi	at,0
    ori r1, r1, %lo(_start)
   4:	08400814 	ori	at,at,32
    jmp r1
   8:	0800683a 	jmp	at

0000000c <_exit>:
	...

Disassembly of section .text:

00000020 <_start>:
     * writing zero to SSTATUS register and executing an ERET instruction
     * to set STATUS.CRS to 0.
     */
    
    /* Get the current register set number (STATUS.CRS). */
    rdctl r2, status
      20:	0005303a 	rdctl	r2,status
    andi r2, r2, NIOS2_STATUS_CRS_MSK
      24:	10bf000c 	andi	r2,r2,64512
    
    /* Skip switching register set if STATUS.CRS is 0.  */
    beq r2, zero, 0f
      28:	10000426 	beq	r2,zero,3c <_start+0x1c>

    /* Set SSTATUS to 0 to get to set SSTATUS.PRS to 0. */
    .set nobreak
    movui sstatus, 0
      2c:	07800014 	movui	sstatus,0
    .set break

    /* Switch to register set 0 and jump to label. */
    movhi ea, %hi(0f)
      30:	07400034 	movhi	ea,0
    ori ea, ea, %lo(0f)
      34:	ef400f14 	ori	ea,ea,60
    eret
      38:	ef80083a 	eret

    /*
     * Now that the caches are initialized, set up the stack pointer and global pointer.
     * The values provided by the linker are assumed to be correctly aligned.
     */
    movhi sp, %hi(__alt_stack_pointer)
      3c:	06c00034 	movhi	sp,0
    ori sp, sp, %lo(__alt_stack_pointer)
      40:	dee40014 	ori	sp,sp,36864
    movhi gp, %hi(_gp)
      44:	06800074 	movhi	gp,1
    ori gp, gp, %lo(_gp)
      48:	d6809114 	ori	gp,gp,580
    /* 
     * Setup registers in shadow register sets
     * from 1 to NIOS2_NUM_OF_SHADOW_REG_SETS.
     */

    movui r2, 0     /* Contains value written into STATUS */
      4c:	00800014 	movui	r2,0
    movui r3, NIOS2_NUM_OF_SHADOW_REG_SETS  /* counter */
      50:	00c000d4 	movui	r3,3
    movhi r4, 1     /* Constant to increment STATUS.PRS */
      54:	01000074 	movhi	r4,1
    
.Linitialize_shadow_registers:
    /* Increment STATUS.PRS */
    add r2, r2, r4
      58:	1105883a 	add	r2,r2,r4
    wrctl status, r2
      5c:	1001703a 	wrctl	status,r2

    /* Clear r0 in the shadow register set (not done by hardware) */
    wrprs r0, r0
      60:	0000a03a 	wrprs	zero,zero

    /* Write the GP in previous register set */
    wrprs gp, gp
      64:	d034a03a 	wrprs	gp,gp
    wrprs r30, r0    /* ba */
    wrprs r31, r0    /* ra */
#endif /* NIOS2_ECC_PRESENT */

    /* Decrement shadow register set counter */
    addi r3, r3, -1
      68:	18ffffc4 	addi	r3,r3,-1

    /* Done if index is 0. */
    bne r3, zero, .Linitialize_shadow_registers
      6c:	183ffa1e 	bne	r3,zero,58 <_start+0x38>
 */
#ifndef ALT_SIM_OPTIMIZE
    /* Log that the BSS is about to be cleared. */
    ALT_LOG_PUTS(alt_log_msg_bss)

    movhi r2, %hi(__bss_start)
      70:	00800034 	movhi	r2,0
    ori r2, r2, %lo(__bss_start)
      74:	10a0a414 	ori	r2,r2,33424

    movhi r3, %hi(__bss_end)
      78:	00c00034 	movhi	r3,0
    ori r3, r3, %lo(__bss_end)
      7c:	18e0db14 	ori	r3,r3,33644

    beq r2, r3, 1f
      80:	10c00326 	beq	r2,r3,90 <_start+0x70>

0:
    stw zero, (r2)
      84:	10000015 	stw	zero,0(r2)
    addi r2, r2, 4
      88:	10800104 	addi	r2,r2,4
    bltu r2, r3, 0b
      8c:	10fffd36 	bltu	r2,r3,84 <_start+0x64>
     * section aren't defined until alt_load() has been called).
     */
    mov   et, zero
#endif

    call alt_load
      90:	00053500 	call	5350 <alt_load>

    /* Log that alt_main is about to be called. */
    ALT_LOG_PUTS(alt_log_msg_alt_main)

    /* Call the C entry point. It should never return. */
    call alt_main
      94:	00053d40 	call	53d4 <alt_main>

00000098 <alt_after_alt_main>:

    /* Wait in infinite loop in case alt_main does return. */
alt_after_alt_main:
    br alt_after_alt_main
      98:	003fff06 	br	98 <alt_after_alt_main>

0000009c <print_buffer>:
    }
    return buf;
}

static int print_buffer(MICROSHELL *handle, char *buf, int ofs)
{
      9c:	defffb04 	addi	sp,sp,-20
      a0:	dcc00315 	stw	r19,12(sp)
      a4:	dc800215 	stw	r18,8(sp)
      a8:	dc400115 	stw	r17,4(sp)
      ac:	dc000015 	stw	r16,0(sp)
      b0:	dfc00415 	stw	ra,16(sp)
      b4:	2027883a 	mov	r19,r4
      b8:	2823883a 	mov	r17,r5
      bc:	3025883a 	mov	r18,r6
    int cnt = 0;
      c0:	0021883a 	mov	r16,zero
    char *p = buf + ofs;
    while (*p) {
      c4:	8485883a 	add	r2,r16,r18
      c8:	8885883a 	add	r2,r17,r2
      cc:	11000007 	ldb	r4,0(r2)
      d0:	2000081e 	bne	r4,zero,f4 <print_buffer+0x58>
        handle->uart_putc(*p++);
        cnt++;
    }
    return cnt;
}
      d4:	8005883a 	mov	r2,r16
      d8:	dfc00417 	ldw	ra,16(sp)
      dc:	dcc00317 	ldw	r19,12(sp)
      e0:	dc800217 	ldw	r18,8(sp)
      e4:	dc400117 	ldw	r17,4(sp)
      e8:	dc000017 	ldw	r16,0(sp)
      ec:	dec00504 	addi	sp,sp,20
      f0:	f800283a 	ret
        handle->uart_putc(*p++);
      f4:	98800317 	ldw	r2,12(r19)
        cnt++;
      f8:	84000044 	addi	r16,r16,1
        handle->uart_putc(*p++);
      fc:	103ee83a 	callr	r2
        cnt++;
     100:	003ff006 	br	c4 <print_buffer+0x28>

00000104 <print_return>:
    return 1;
}

static void print_return(MICROSHELL *handle)
{
    handle->uart_putc('\r');
     104:	20800317 	ldw	r2,12(r4)
{
     108:	defffe04 	addi	sp,sp,-8
     10c:	dc000015 	stw	r16,0(sp)
     110:	dfc00115 	stw	ra,4(sp)
     114:	2021883a 	mov	r16,r4
    handle->uart_putc('\r');
     118:	01000344 	movi	r4,13
     11c:	103ee83a 	callr	r2
    handle->uart_putc('\n');
     120:	80800317 	ldw	r2,12(r16)
     124:	01000284 	movi	r4,10
}
     128:	dfc00117 	ldw	ra,4(sp)
     12c:	dc000017 	ldw	r16,0(sp)
     130:	dec00204 	addi	sp,sp,8
    handle->uart_putc('\n');
     134:	1000683a 	jmp	r2

00000138 <cursor_left>:

static void cursor_left(MICROSHELL *handle, int n)
{
     138:	defffc04 	addi	sp,sp,-16
     13c:	dc800215 	stw	r18,8(sp)
     140:	dc400115 	stw	r17,4(sp)
     144:	dc000015 	stw	r16,0(sp)
     148:	dfc00315 	stw	ra,12(sp)
     14c:	2021883a 	mov	r16,r4
     150:	2823883a 	mov	r17,r5
    int i;
    for (i = 0; i < n; i++) {
     154:	0025883a 	mov	r18,zero
     158:	94400616 	blt	r18,r17,174 <cursor_left+0x3c>
        handle->uart_putc('\x1B');
        handle->uart_putc('[');
        handle->uart_putc('D');
    }
}
     15c:	dfc00317 	ldw	ra,12(sp)
     160:	dc800217 	ldw	r18,8(sp)
     164:	dc400117 	ldw	r17,4(sp)
     168:	dc000017 	ldw	r16,0(sp)
     16c:	dec00404 	addi	sp,sp,16
     170:	f800283a 	ret
        handle->uart_putc('\x1B');
     174:	80800317 	ldw	r2,12(r16)
     178:	010006c4 	movi	r4,27
    for (i = 0; i < n; i++) {
     17c:	94800044 	addi	r18,r18,1
        handle->uart_putc('\x1B');
     180:	103ee83a 	callr	r2
        handle->uart_putc('[');
     184:	80800317 	ldw	r2,12(r16)
     188:	010016c4 	movi	r4,91
     18c:	103ee83a 	callr	r2
        handle->uart_putc('D');
     190:	80800317 	ldw	r2,12(r16)
     194:	01001104 	movi	r4,68
     198:	103ee83a 	callr	r2
    for (i = 0; i < n; i++) {
     19c:	003fee06 	br	158 <cursor_left+0x20>

000001a0 <cursor_right>:

static void cursor_right(MICROSHELL *handle, int n)
{
     1a0:	defffc04 	addi	sp,sp,-16
     1a4:	dc800215 	stw	r18,8(sp)
     1a8:	dc400115 	stw	r17,4(sp)
     1ac:	dc000015 	stw	r16,0(sp)
     1b0:	dfc00315 	stw	ra,12(sp)
     1b4:	2021883a 	mov	r16,r4
     1b8:	2825883a 	mov	r18,r5
    int i;
    for (i = 0; i < n; i++) {
     1bc:	0023883a 	mov	r17,zero
        handle->uart_putc('\x1B');
     1c0:	80800317 	ldw	r2,12(r16)
     1c4:	010006c4 	movi	r4,27
    for (i = 0; i < n; i++) {
     1c8:	8c400044 	addi	r17,r17,1
        handle->uart_putc('\x1B');
     1cc:	103ee83a 	callr	r2
        handle->uart_putc('[');
     1d0:	80800317 	ldw	r2,12(r16)
     1d4:	010016c4 	movi	r4,91
     1d8:	103ee83a 	callr	r2
        handle->uart_putc('C');
     1dc:	80800317 	ldw	r2,12(r16)
     1e0:	010010c4 	movi	r4,67
     1e4:	103ee83a 	callr	r2
    for (i = 0; i < n; i++) {
     1e8:	947ff51e 	bne	r18,r17,1c0 <cursor_right+0x20>
    }
}
     1ec:	dfc00317 	ldw	ra,12(sp)
     1f0:	dc800217 	ldw	r18,8(sp)
     1f4:	dc400117 	ldw	r17,4(sp)
     1f8:	dc000017 	ldw	r16,0(sp)
     1fc:	dec00404 	addi	sp,sp,16
     200:	f800283a 	ret

00000204 <microshell_init>:

void microshell_init(MICROSHELL *handle, MICROSHELL_UART_PUTC uart_putc, MICROSHELL_UART_GETC uart_getc, MICROSHELL_ACTION_HOOK action_hook)
{
     204:	defffb04 	addi	sp,sp,-20
     208:	dcc00315 	stw	r19,12(sp)
     20c:	dc800215 	stw	r18,8(sp)
     210:	dc400115 	stw	r17,4(sp)
     214:	dc000015 	stw	r16,0(sp)
     218:	dfc00415 	stw	ra,16(sp)
     21c:	2021883a 	mov	r16,r4
     220:	2827883a 	mov	r19,r5
     224:	3025883a 	mov	r18,r6
     228:	3823883a 	mov	r17,r7
    mscore_init(&(handle->mscore));
     22c:	00005c00 	call	5c0 <mscore_init>
    handle->uart_putc = uart_putc;
     230:	84c00315 	stw	r19,12(r16)
    handle->uart_getc = uart_getc;
     234:	84800415 	stw	r18,16(r16)
    handle->action_hook = action_hook;
     238:	84400515 	stw	r17,20(r16)
}
     23c:	dfc00417 	ldw	ra,16(sp)
     240:	dcc00317 	ldw	r19,12(sp)
     244:	dc800217 	ldw	r18,8(sp)
     248:	dc400117 	ldw	r17,4(sp)
     24c:	dc000017 	ldw	r16,0(sp)
     250:	dec00504 	addi	sp,sp,20
     254:	f800283a 	ret

00000258 <microshell_getline>:

char *microshell_getline(MICROSHELL *handle, char *buf, int siz)
{
     258:	defff504 	addi	sp,sp,-44
     25c:	dd400615 	stw	r21,24(sp)
     260:	dc800315 	stw	r18,12(sp)
     264:	dc400215 	stw	r17,8(sp)
     268:	dfc00a15 	stw	ra,40(sp)
     26c:	df000915 	stw	fp,36(sp)
     270:	ddc00815 	stw	r23,32(sp)
     274:	dd800715 	stw	r22,28(sp)
     278:	dd000515 	stw	r20,20(sp)
     27c:	dcc00415 	stw	r19,16(sp)
     280:	dc000115 	stw	r16,4(sp)
     284:	2023883a 	mov	r17,r4
     288:	2825883a 	mov	r18,r5
     28c:	302b883a 	mov	r21,r6
        *p++ = 0;
     290:	3000330e 	bge	r6,zero,360 <microshell_getline+0x108>
     294:	002f883a 	mov	r23,zero
     298:	b80d883a 	mov	r6,r23
     29c:	000b883a 	mov	r5,zero
     2a0:	9009883a 	mov	r4,r18
     2a4:	00045740 	call	4574 <memset>
    char *ptr = buf;
     2a8:	9029883a 	mov	r20,r18
    int pos = 0;
    int len = 0;
     2ac:	0027883a 	mov	r19,zero
    int pos = 0;
     2b0:	0021883a 	mov	r16,zero
                    *ptr++ = c;
                    pos++;
                    len++;
                    n += print_buffer(handle, buf, pos);
                    cursor_left(handle, n);
                    if (len >= siz - 1) {
     2b4:	ad7fffc4 	addi	r21,r21,-1
        char c = handle->uart_getc();
     2b8:	88800417 	ldw	r2,16(r17)
     2bc:	103ee83a 	callr	r2
     2c0:	102d883a 	mov	r22,r2
        MSCORE_ACTION action = mscore_push(&(handle->mscore), c);
     2c4:	b7003fcc 	andi	fp,r22,255
     2c8:	e700201c 	xori	fp,fp,128
     2cc:	e73fe004 	addi	fp,fp,-128
     2d0:	8809883a 	mov	r4,r17
     2d4:	e00b883a 	mov	r5,fp
     2d8:	00005f40 	call	5f4 <mscore_push>
     2dc:	1009883a 	mov	r4,r2
        if (handle->action_hook) {
     2e0:	88800517 	ldw	r2,20(r17)
     2e4:	10000326 	beq	r2,zero,2f4 <microshell_getline+0x9c>
            handle->action_hook(action);
     2e8:	d9000015 	stw	r4,0(sp)
     2ec:	103ee83a 	callr	r2
     2f0:	d9000017 	ldw	r4,0(sp)
        switch (action) {
     2f4:	20800468 	cmpgeui	r2,r4,17
     2f8:	10001b1e 	bne	r2,zero,368 <microshell_getline+0x110>
     2fc:	203fee26 	beq	r4,zero,2b8 <microshell_getline+0x60>
     300:	213fffc4 	addi	r4,r4,-1
     304:	20800428 	cmpgeui	r2,r4,16
     308:	103feb1e 	bne	r2,zero,2b8 <microshell_getline+0x60>
     30c:	200890ba 	slli	r4,r4,2
     310:	00800034 	movhi	r2,0
     314:	2085883a 	add	r2,r4,r2
     318:	1080c817 	ldw	r2,800(r2)
     31c:	1000683a 	jmp	r2
     320:	0000042c 	andhi	zero,zero,16
     324:	000004bc 	xorhi	zero,zero,18
     328:	00000530 	cmpltui	zero,zero,20
     32c:	000002b8 	rdprs	zero,zero,10
     330:	000002b8 	rdprs	zero,zero,10
     334:	000003f0 	cmpltui	zero,zero,15
     338:	000005a4 	muli	zero,zero,22
     33c:	00000590 	cmplti	zero,zero,22
     340:	000003c8 	cmpgei	zero,zero,15
     344:	00000530 	cmpltui	zero,zero,20
     348:	000003ac 	andhi	zero,zero,14
     34c:	00000388 	cmpgei	zero,zero,14
     350:	000002b8 	rdprs	zero,zero,10
     354:	000004bc 	xorhi	zero,zero,18
     358:	000002b8 	rdprs	zero,zero,10
     35c:	000003f0 	cmpltui	zero,zero,15
     360:	302f883a 	mov	r23,r6
     364:	003fcc06 	br	298 <microshell_getline+0x40>
     368:	20800c60 	cmpeqi	r2,r4,49
     36c:	10008d1e 	bne	r2,zero,5a4 <microshell_getline+0x34c>
     370:	20800ca8 	cmpgeui	r2,r4,50
     374:	10000b1e 	bne	r2,zero,3a4 <microshell_getline+0x14c>
     378:	20800be0 	cmpeqi	r2,r4,47
     37c:	1000841e 	bne	r2,zero,590 <microshell_getline+0x338>
     380:	21000c20 	cmpeqi	r4,r4,48
     384:	203fcc26 	beq	r4,zero,2b8 <microshell_getline+0x60>
                    cursor_left(handle, 1);
                }
                break;
            case MSCORE_ACTION_ARROW_RIGHT:
            case MSCORE_ACTION_CTRL_F:
                if (pos < len) {
     388:	84ffcb0e 	bge	r16,r19,2b8 <microshell_getline+0x60>
                    ptr++;
                    pos++;
                    cursor_right(handle, 1);
     38c:	01400044 	movi	r5,1
     390:	8809883a 	mov	r4,r17
                    ptr++;
     394:	a5000044 	addi	r20,r20,1
                    pos++;
     398:	84000044 	addi	r16,r16,1
                    cursor_right(handle, 1);
     39c:	00001a00 	call	1a0 <cursor_right>
     3a0:	003fc506 	br	2b8 <microshell_getline+0x60>
        switch (action) {
     3a4:	21000ca0 	cmpeqi	r4,r4,50
     3a8:	203fc326 	beq	r4,zero,2b8 <microshell_getline+0x60>
                    cursor_left(handle, n);
                }
                break;
            case MSCORE_ACTION_END:
            case MSCORE_ACTION_CTRL_E:
                if (pos < len) {
     3ac:	84ffc20e 	bge	r16,r19,2b8 <microshell_getline+0x60>
                    int n = len - pos;
     3b0:	9c0bc83a 	sub	r5,r19,r16
                    ptr += n;
                    pos = len;
                    cursor_right(handle, n);
     3b4:	8809883a 	mov	r4,r17
                    ptr += n;
     3b8:	a169883a 	add	r20,r20,r5
                    cursor_right(handle, n);
     3bc:	9821883a 	mov	r16,r19
     3c0:	00001a00 	call	1a0 <cursor_right>
     3c4:	003fbc06 	br	2b8 <microshell_getline+0x60>
        *p++ = 0;
     3c8:	b80d883a 	mov	r6,r23
     3cc:	000b883a 	mov	r5,zero
     3d0:	9009883a 	mov	r4,r18
     3d4:	00045740 	call	4574 <memset>
    handle->uart_putc(c);
     3d8:	88800317 	ldw	r2,12(r17)
     3dc:	01001784 	movi	r4,94
     3e0:	103ee83a 	callr	r2
     3e4:	88800317 	ldw	r2,12(r17)
     3e8:	010010c4 	movi	r4,67
     3ec:	103ee83a 	callr	r2
                print_return(handle);
     3f0:	8809883a 	mov	r4,r17
     3f4:	00001040 	call	104 <print_return>
        }
    }

end:
    return buf;
}
     3f8:	9005883a 	mov	r2,r18
     3fc:	dfc00a17 	ldw	ra,40(sp)
     400:	df000917 	ldw	fp,36(sp)
     404:	ddc00817 	ldw	r23,32(sp)
     408:	dd800717 	ldw	r22,28(sp)
     40c:	dd400617 	ldw	r21,24(sp)
     410:	dd000517 	ldw	r20,20(sp)
     414:	dcc00417 	ldw	r19,16(sp)
     418:	dc800317 	ldw	r18,12(sp)
     41c:	dc400217 	ldw	r17,8(sp)
     420:	dc000117 	ldw	r16,4(sp)
     424:	dec00b04 	addi	sp,sp,44
     428:	f800283a 	ret
                    copy_backward(buf, pos - 1, pos - 0, len - pos + 1);
     42c:	9c05c83a 	sub	r2,r19,r16
        *p_des-- = *p_src--;
     430:	10ffffd0 	cmplti	r3,r2,-1
                    copy_backward(buf, pos - 1, pos - 0, len - pos + 1);
     434:	11000044 	addi	r4,r2,1
        *p_des-- = *p_src--;
     438:	18001c1e 	bne	r3,zero,4ac <microshell_getline+0x254>
     43c:	0085c83a 	sub	r2,zero,r2
     440:	18001c1e 	bne	r3,zero,4b4 <microshell_getline+0x25c>
     444:	200d883a 	mov	r6,r4
                    copy_backward(buf, pos - 1, pos - 0, len - pos + 1);
     448:	817fffc4 	addi	r5,r16,-1
    char *p_src = buf + ofs_src + siz;
     44c:	290b883a 	add	r5,r5,r4
    char *p_des = buf + ofs_des + siz;
     450:	8109883a 	add	r4,r16,r4
        *p_des-- = *p_src--;
     454:	288b883a 	add	r5,r5,r2
     458:	2089883a 	add	r4,r4,r2
     45c:	914b883a 	add	r5,r18,r5
     460:	9109883a 	add	r4,r18,r4
     464:	00045140 	call	4514 <memmove>
                    handle->uart_putc(c);
     468:	88800317 	ldw	r2,12(r17)
     46c:	e009883a 	mov	r4,fp
                    pos++;
     470:	84000044 	addi	r16,r16,1
                    handle->uart_putc(c);
     474:	103ee83a 	callr	r2
                    n += print_buffer(handle, buf, pos);
     478:	900b883a 	mov	r5,r18
     47c:	8809883a 	mov	r4,r17
                    *ptr++ = c;
     480:	a5800005 	stb	r22,0(r20)
                    n += print_buffer(handle, buf, pos);
     484:	800d883a 	mov	r6,r16
     488:	000009c0 	call	9c <print_buffer>
                    len++;
     48c:	9cc00044 	addi	r19,r19,1
                    cursor_left(handle, n);
     490:	100b883a 	mov	r5,r2
     494:	8809883a 	mov	r4,r17
                    *ptr++ = c;
     498:	a7000044 	addi	fp,r20,1
                    cursor_left(handle, n);
     49c:	00001380 	call	138 <cursor_left>
                    if (len >= siz - 1) {
     4a0:	9d7fd30e 	bge	r19,r21,3f0 <microshell_getline+0x198>
                    *ptr++ = c;
     4a4:	e029883a 	mov	r20,fp
     4a8:	003f8306 	br	2b8 <microshell_getline+0x60>
        *p_des-- = *p_src--;
     4ac:	00800044 	movi	r2,1
     4b0:	003fe306 	br	440 <microshell_getline+0x1e8>
     4b4:	000d883a 	mov	r6,zero
     4b8:	003fe306 	br	448 <microshell_getline+0x1f0>
                if (pos > 0) {
     4bc:	803f7e26 	beq	r16,zero,2b8 <microshell_getline+0x60>
                    copy_forward(buf, pos, pos - 1, len - pos + 1);
     4c0:	9c0dc83a 	sub	r6,r19,r16
        *p_des++ = *p_src++;
     4c4:	30bfffd0 	cmplti	r2,r6,-1
                    copy_forward(buf, pos, pos - 1, len - pos + 1);
     4c8:	85bfffc4 	addi	r22,r16,-1
        *p_des++ = *p_src++;
     4cc:	1000161e 	bne	r2,zero,528 <microshell_getline+0x2d0>
     4d0:	31800044 	addi	r6,r6,1
     4d4:	940b883a 	add	r5,r18,r16
     4d8:	9589883a 	add	r4,r18,r22
     4dc:	00045140 	call	4514 <memmove>
                    cursor_left(handle, 1);
     4e0:	01400044 	movi	r5,1
     4e4:	8809883a 	mov	r4,r17
     4e8:	00001380 	call	138 <cursor_left>
                    n += print_buffer(handle, buf, pos);
     4ec:	b00d883a 	mov	r6,r22
     4f0:	900b883a 	mov	r5,r18
     4f4:	8809883a 	mov	r4,r17
     4f8:	000009c0 	call	9c <print_buffer>
     4fc:	1021883a 	mov	r16,r2
    handle->uart_putc(c);
     500:	88800317 	ldw	r2,12(r17)
     504:	01000804 	movi	r4,32
                    ptr--;
     508:	a53fffc4 	addi	r20,r20,-1
    handle->uart_putc(c);
     50c:	103ee83a 	callr	r2
                    cursor_left(handle, n);
     510:	81400044 	addi	r5,r16,1
     514:	8809883a 	mov	r4,r17
                    len--;
     518:	9cffffc4 	addi	r19,r19,-1
                    cursor_left(handle, n);
     51c:	00001380 	call	138 <cursor_left>
                    pos--;
     520:	b021883a 	mov	r16,r22
     524:	003f6406 	br	2b8 <microshell_getline+0x60>
        *p_des++ = *p_src++;
     528:	000d883a 	mov	r6,zero
     52c:	003fe906 	br	4d4 <microshell_getline+0x27c>
                if (len > 0) {
     530:	04ff610e 	bge	zero,r19,2b8 <microshell_getline+0x60>
                    copy_forward(buf, pos + 1, pos + 0, len - pos + 1);
     534:	9c0dc83a 	sub	r6,r19,r16
        *p_des++ = *p_src++;
     538:	30bfffd0 	cmplti	r2,r6,-1
     53c:	1000121e 	bne	r2,zero,588 <microshell_getline+0x330>
     540:	31800044 	addi	r6,r6,1
                    copy_forward(buf, pos + 1, pos + 0, len - pos + 1);
     544:	81400044 	addi	r5,r16,1
        *p_des++ = *p_src++;
     548:	914b883a 	add	r5,r18,r5
     54c:	9409883a 	add	r4,r18,r16
     550:	00045140 	call	4514 <memmove>
                    n += print_buffer(handle, buf, pos);
     554:	900b883a 	mov	r5,r18
     558:	800d883a 	mov	r6,r16
     55c:	8809883a 	mov	r4,r17
     560:	000009c0 	call	9c <print_buffer>
     564:	102d883a 	mov	r22,r2
    handle->uart_putc(c);
     568:	88800317 	ldw	r2,12(r17)
     56c:	01000804 	movi	r4,32
                    len--;
     570:	9cffffc4 	addi	r19,r19,-1
    handle->uart_putc(c);
     574:	103ee83a 	callr	r2
                    cursor_left(handle, n);
     578:	b1400044 	addi	r5,r22,1
                    cursor_left(handle, 1);
     57c:	8809883a 	mov	r4,r17
     580:	00001380 	call	138 <cursor_left>
     584:	003f4c06 	br	2b8 <microshell_getline+0x60>
        *p_des++ = *p_src++;
     588:	000d883a 	mov	r6,zero
     58c:	003fed06 	br	544 <microshell_getline+0x2ec>
                if (pos > 0) {
     590:	803f4926 	beq	r16,zero,2b8 <microshell_getline+0x60>
                    ptr--;
     594:	a53fffc4 	addi	r20,r20,-1
                    pos--;
     598:	843fffc4 	addi	r16,r16,-1
                    cursor_left(handle, 1);
     59c:	01400044 	movi	r5,1
     5a0:	003ff606 	br	57c <microshell_getline+0x324>
                if (pos > 0) {
     5a4:	803f4426 	beq	r16,zero,2b8 <microshell_getline+0x60>
                    cursor_left(handle, n);
     5a8:	800b883a 	mov	r5,r16
     5ac:	8809883a 	mov	r4,r17
                    ptr -= n;
     5b0:	a429c83a 	sub	r20,r20,r16
                    cursor_left(handle, n);
     5b4:	00001380 	call	138 <cursor_left>
                    pos = 0;
     5b8:	0021883a 	mov	r16,zero
     5bc:	003f3e06 	br	2b8 <microshell_getline+0x60>

000005c0 <mscore_init>:
    }
    return 1;
}

void mscore_init(MSCORE *handle)
{
     5c0:	defffe04 	addi	sp,sp,-8
     5c4:	dc000015 	stw	r16,0(sp)
        buf[i] = 0;
     5c8:	01800204 	movi	r6,8
{
     5cc:	2021883a 	mov	r16,r4
        buf[i] = 0;
     5d0:	000b883a 	mov	r5,zero
     5d4:	21000104 	addi	r4,r4,4
{
     5d8:	dfc00115 	stw	ra,4(sp)
        buf[i] = 0;
     5dc:	00045740 	call	4574 <memset>
    buf_clear(handle->keybuf, MSCORE_BUFFER_SIZE);
    handle->keycnt = 0;
     5e0:	80000015 	stw	zero,0(r16)
}
     5e4:	dfc00117 	ldw	ra,4(sp)
     5e8:	dc000017 	ldw	r16,0(sp)
     5ec:	dec00204 	addi	sp,sp,8
     5f0:	f800283a 	ret

000005f4 <mscore_push>:

MSCORE_ACTION mscore_push(MSCORE *handle, char c)
{
    int match = 0;
    handle->keybuf[handle->keycnt++] = c;
     5f4:	20800017 	ldw	r2,0(r4)
{
     5f8:	defffd04 	addi	sp,sp,-12
     5fc:	dc400115 	stw	r17,4(sp)
     600:	dc000015 	stw	r16,0(sp)
     604:	dfc00215 	stw	ra,8(sp)
    handle->keybuf[handle->keycnt++] = c;
     608:	11c00044 	addi	r7,r2,1
     60c:	21c00015 	stw	r7,0(r4)
     610:	2085883a 	add	r2,r4,r2
    const MSCORE_KEYMAP *p = &kmlist[0];
     614:	04400034 	movhi	r17,0
    const int N = sizeof(kmlist) / sizeof(kmlist[0]);
    int i;
    for (i = 0; i < N; i++) {
     618:	01800034 	movhi	r6,0
{
     61c:	2007883a 	mov	r3,r4
     620:	2821883a 	mov	r16,r5
    handle->keybuf[handle->keycnt++] = c;
     624:	11400105 	stb	r5,4(r2)
    const MSCORE_KEYMAP *p = &kmlist[0];
     628:	8c575704 	addi	r17,r17,23900
        if (handle->keycnt == buf_length(p->stream))  {
            if (buf_match(p->stream, handle->keybuf, handle->keycnt)) {
     62c:	21000104 	addi	r4,r4,4
    for (i = 0; i < N; i++) {
     630:	31977304 	addi	r6,r6,24012
        if (handle->keycnt == buf_length(p->stream))  {
     634:	8a000017 	ldw	r8,0(r17)
    int n = 0;
     638:	000b883a 	mov	r5,zero
    while (*buf++) {
     63c:	4145883a 	add	r2,r8,r5
     640:	10800007 	ldb	r2,0(r2)
     644:	1000081e 	bne	r2,zero,668 <mscore_push+0x74>
        if (handle->keycnt == buf_length(p->stream))  {
     648:	39401626 	beq	r7,r5,6a4 <mscore_push+0xb0>
    for (i = 0; i < n; i++) {
     64c:	11c01716 	blt	r2,r7,6ac <mscore_push+0xb8>
        buf_clear(handle->keybuf, MSCORE_BUFFER_SIZE);
        if ((' ' <= c) && (c <= '~')) {
            return MSCORE_ACTION_DISPLAYABLE;
        }
    }
    return MSCORE_ACTION_IGNORE;
     650:	0005883a 	mov	r2,zero
}
     654:	dfc00217 	ldw	ra,8(sp)
     658:	dc400117 	ldw	r17,4(sp)
     65c:	dc000017 	ldw	r16,0(sp)
     660:	dec00304 	addi	sp,sp,12
     664:	f800283a 	ret
        n++;
     668:	29400044 	addi	r5,r5,1
     66c:	003ff306 	br	63c <mscore_push+0x48>
        if (*a++ != *b++) {
     670:	4095883a 	add	r10,r8,r2
     674:	1893883a 	add	r9,r3,r2
     678:	52800007 	ldb	r10,0(r10)
     67c:	4a400107 	ldb	r9,4(r9)
     680:	5240111e 	bne	r10,r9,6c8 <mscore_push+0xd4>
    for (i = 0; i < n; i++) {
     684:	10800044 	addi	r2,r2,1
     688:	28bff91e 	bne	r5,r2,670 <mscore_push+0x7c>
                handle->keycnt = 0;
     68c:	18000015 	stw	zero,0(r3)
        buf[i] = 0;
     690:	01800204 	movi	r6,8
     694:	000b883a 	mov	r5,zero
     698:	00045740 	call	4574 <memset>
                return p->action;
     69c:	88800117 	ldw	r2,4(r17)
     6a0:	003fec06 	br	654 <mscore_push+0x60>
    for (i = 0; i < n; i++) {
     6a4:	0005883a 	mov	r2,zero
     6a8:	003ff706 	br	688 <mscore_push+0x94>
        if (*a++ != *b++) {
     6ac:	4093883a 	add	r9,r8,r2
     6b0:	188b883a 	add	r5,r3,r2
     6b4:	4a400007 	ldb	r9,0(r9)
     6b8:	29400107 	ldb	r5,4(r5)
     6bc:	4940021e 	bne	r9,r5,6c8 <mscore_push+0xd4>
    for (i = 0; i < n; i++) {
     6c0:	10800044 	addi	r2,r2,1
     6c4:	003fe106 	br	64c <mscore_push+0x58>
        p++;
     6c8:	8c400204 	addi	r17,r17,8
    for (i = 0; i < N; i++) {
     6cc:	89bfd91e 	bne	r17,r6,634 <mscore_push+0x40>
        handle->keycnt = 0;
     6d0:	18000015 	stw	zero,0(r3)
        buf[i] = 0;
     6d4:	01800204 	movi	r6,8
     6d8:	000b883a 	mov	r5,zero
     6dc:	00045740 	call	4574 <memset>
        if ((' ' <= c) && (c <= '~')) {
     6e0:	80bff804 	addi	r2,r16,-32
     6e4:	10803fcc 	andi	r2,r2,255
     6e8:	108017f0 	cmpltui	r2,r2,95
     6ec:	003fd906 	br	654 <mscore_push+0x60>

000006f0 <mscmd_init>:
#include "mscmd.h"
#include "ntlibc.h"

int mscmd_init(MSCMD *handle, MSCMD_COMMAND_TABLE *command_table, int command_count, MSCMD_USER_OBJECT usrobj)
{
    handle->command_table = command_table;
     6f0:	21400015 	stw	r5,0(r4)
    handle->command_count = command_count;
     6f4:	21800115 	stw	r6,4(r4)
    handle->usrobj = usrobj;
     6f8:	21c00215 	stw	r7,8(r4)
    return 0;
}
     6fc:	0005883a 	mov	r2,zero
     700:	f800283a 	ret

00000704 <mscmd_execute>:

int mscmd_execute(MSCMD *handle, char *text, MSCMD_USER_RESULT *result)
{
     704:	deffd504 	addi	sp,sp,-172
     708:	dc402615 	stw	r17,152(sp)
     70c:	2023883a 	mov	r17,r4
    MSOPT msopt;
    int argc = 0;
    char argv0[MSCONF_MAX_INPUT_LENGTH];

    msopt_init(&msopt, text);
     710:	d9000904 	addi	r4,sp,36
{
     714:	dfc02a15 	stw	ra,168(sp)
     718:	dd002915 	stw	r20,164(sp)
     71c:	dcc02815 	stw	r19,160(sp)
     720:	3029883a 	mov	r20,r6
     724:	dc802715 	stw	r18,156(sp)
     728:	dc002515 	stw	r16,148(sp)
    int argc = 0;
     72c:	d8000015 	stw	zero,0(sp)
    msopt_init(&msopt, text);
     730:	00007d40 	call	7d4 <msopt_init>
    msopt_get_argc(&msopt, &argc);
     734:	d80b883a 	mov	r5,sp
     738:	d9000904 	addi	r4,sp,36
     73c:	00008e40 	call	8e4 <msopt_get_argc>
    if (argc == 0) {
     740:	d8800017 	ldw	r2,0(sp)
     744:	10002126 	beq	r2,zero,7cc <mscmd_execute+0xc8>
        return -1;
    }
    MSCMD_COMMAND_TABLE *p = handle->command_table;
     748:	8c800017 	ldw	r18,0(r17)
    int i;
    for (i = 0; i < handle->command_count; i++) {
     74c:	0027883a 	mov	r19,zero
     750:	88800117 	ldw	r2,4(r17)
     754:	98800216 	blt	r19,r2,760 <mscmd_execute+0x5c>
            *result = p->func(&msopt, handle->usrobj);
            return 0;
        }
        p++;
    }
    return -2;
     758:	043fff84 	movi	r16,-2
     75c:	00000f06 	br	79c <mscmd_execute+0x98>
        msopt_get_argv(&msopt, 0, argv0, sizeof(argv0));
     760:	01c00804 	movi	r7,32
     764:	d9800104 	addi	r6,sp,4
     768:	000b883a 	mov	r5,zero
     76c:	d9000904 	addi	r4,sp,36
     770:	000090c0 	call	90c <msopt_get_argv>
        if (ntlibc_strcmp(argv0, p->argv0) == 0) {
     774:	91400017 	ldw	r5,0(r18)
     778:	d9000104 	addi	r4,sp,4
     77c:	000097c0 	call	97c <ntlibc_strcmp>
     780:	1021883a 	mov	r16,r2
     784:	10000e1e 	bne	r2,zero,7c0 <mscmd_execute+0xbc>
            *result = p->func(&msopt, handle->usrobj);
     788:	90800117 	ldw	r2,4(r18)
     78c:	89400217 	ldw	r5,8(r17)
     790:	d9000904 	addi	r4,sp,36
     794:	103ee83a 	callr	r2
     798:	a0800015 	stw	r2,0(r20)
}
     79c:	8005883a 	mov	r2,r16
     7a0:	dfc02a17 	ldw	ra,168(sp)
     7a4:	dd002917 	ldw	r20,164(sp)
     7a8:	dcc02817 	ldw	r19,160(sp)
     7ac:	dc802717 	ldw	r18,156(sp)
     7b0:	dc402617 	ldw	r17,152(sp)
     7b4:	dc002517 	ldw	r16,148(sp)
     7b8:	dec02b04 	addi	sp,sp,172
     7bc:	f800283a 	ret
        p++;
     7c0:	94800204 	addi	r18,r18,8
    for (i = 0; i < handle->command_count; i++) {
     7c4:	9cc00044 	addi	r19,r19,1
     7c8:	003fe106 	br	750 <mscmd_execute+0x4c>
        return -1;
     7cc:	043fffc4 	movi	r16,-1
     7d0:	003ff206 	br	79c <mscmd_execute+0x98>

000007d4 <msopt_init>:
}

MSOPT_RESULT msopt_init(MSOPT *handle, char *text)
{
    char *src = text;
    char *des = handle->argv;
     7d4:	20c00204 	addi	r3,r4,8
     7d8:	1805883a 	mov	r2,r3
    while (*src) {
     7dc:	29800003 	ldbu	r6,0(r5)
     7e0:	31c03fcc 	andi	r7,r6,255
     7e4:	39c0201c 	xori	r7,r7,128
     7e8:	39ffe004 	addi	r7,r7,-128
     7ec:	38000a1e 	bne	r7,zero,818 <msopt_init+0x44>
        *des++ = *src++;
    }
    *des = 0;
     7f0:	10000005 	stb	zero,0(r2)
    while (IS_WHITE_SPACE(*p)) {
     7f4:	02002034 	movhi	r8,128
    handle->argc = 0;
     7f8:	20000115 	stw	zero,4(r4)
    while (IS_WHITE_SPACE(*p)) {
     7fc:	420004c4 	addi	r8,r8,19
        if (*p == 0) {
     800:	027ff7c4 	movi	r9,-33
    char *p = handle->argv;
    while (1) {
        if (handle->argc >= MSCONF_MAX_INPUT_ARGS) {
     804:	21400117 	ldw	r5,4(r4)
     808:	28800248 	cmpgei	r2,r5,9
     80c:	10000726 	beq	r2,zero,82c <msopt_init+0x58>
            return MSOPT_RESULT_ERROR_TOO_MUCH_ARGUMENTS;
     810:	008000c4 	movi	r2,3
        p = skip_text_string(p, &(handle->info[handle->argc].length));
        handle->argc++;
    }
    handle->initcode = INITCODE;
    return MSOPT_RESULT_OK;
}
     814:	f800283a 	ret
        *des++ = *src++;
     818:	10800044 	addi	r2,r2,1
     81c:	29400044 	addi	r5,r5,1
     820:	11bfffc5 	stb	r6,-1(r2)
     824:	003fed06 	br	7dc <msopt_init+0x8>
        p++;
     828:	18c00044 	addi	r3,r3,1
    while (IS_WHITE_SPACE(*p)) {
     82c:	19800003 	ldbu	r6,0(r3)
     830:	30bffdc4 	addi	r2,r6,-9
     834:	10803fcc 	andi	r2,r2,255
     838:	11c00630 	cmpltui	r7,r2,24
     83c:	3800081e 	bne	r7,zero,860 <msopt_init+0x8c>
        if (*p == 0) {
     840:	31803fcc 	andi	r6,r6,255
     844:	3180201c 	xori	r6,r6,128
     848:	31bfe004 	addi	r6,r6,-128
     84c:	3000071e 	bne	r6,zero,86c <msopt_init+0x98>
    handle->initcode = INITCODE;
     850:	00a5f014 	movui	r2,38848
     854:	20800015 	stw	r2,0(r4)
    return MSOPT_RESULT_OK;
     858:	0005883a 	mov	r2,zero
     85c:	f800283a 	ret
    while (IS_WHITE_SPACE(*p)) {
     860:	4084d83a 	srl	r2,r8,r2
     864:	1080004c 	andi	r2,r2,1
     868:	103fef1e 	bne	r2,zero,828 <msopt_init+0x54>
        handle->info[handle->argc].head = p;
     86c:	28800144 	addi	r2,r5,5
     870:	100490fa 	slli	r2,r2,3
    int count = 0;
     874:	000f883a 	mov	r7,zero
        handle->info[handle->argc].head = p;
     878:	2085883a 	add	r2,r4,r2
     87c:	10c00015 	stw	r3,0(r2)
    while (!IS_WHITE_SPACE(*p)) {
     880:	19d5883a 	add	r10,r3,r7
     884:	50800003 	ldbu	r2,0(r10)
     888:	11bffdc4 	addi	r6,r2,-9
     88c:	31803fcc 	andi	r6,r6,255
     890:	318000b0 	cmpltui	r6,r6,2
     894:	3000051e 	bne	r6,zero,8ac <msopt_init+0xd8>
     898:	11803fcc 	andi	r6,r2,255
     89c:	3180201c 	xori	r6,r6,128
     8a0:	31bfe004 	addi	r6,r6,-128
     8a4:	31800358 	cmpnei	r6,r6,13
     8a8:	3000071e 	bne	r6,zero,8c8 <msopt_init+0xf4>
    *length = count;
     8ac:	280490fa 	slli	r2,r5,3
        handle->argc++;
     8b0:	29400044 	addi	r5,r5,1
        if (handle->argc >= MSCONF_MAX_INPUT_ARGS) {
     8b4:	5007883a 	mov	r3,r10
    *length = count;
     8b8:	2085883a 	add	r2,r4,r2
     8bc:	11c00b15 	stw	r7,44(r2)
        handle->argc++;
     8c0:	21400115 	stw	r5,4(r4)
        if (handle->argc >= MSCONF_MAX_INPUT_ARGS) {
     8c4:	003fcf06 	br	804 <msopt_init+0x30>
        if (*p == 0) {
     8c8:	1244703a 	and	r2,r2,r9
     8cc:	10803fcc 	andi	r2,r2,255
     8d0:	1080201c 	xori	r2,r2,128
     8d4:	10bfe004 	addi	r2,r2,-128
     8d8:	103ff426 	beq	r2,zero,8ac <msopt_init+0xd8>
        count++;
     8dc:	39c00044 	addi	r7,r7,1
     8e0:	003fe706 	br	880 <msopt_init+0xac>

000008e4 <msopt_get_argc>:

MSOPT_RESULT msopt_get_argc(MSOPT *handle, int *argc)
{
    if (handle->initcode != INITCODE) {
     8e4:	20c00017 	ldw	r3,0(r4)
     8e8:	00a5f014 	movui	r2,38848
     8ec:	18800326 	beq	r3,r2,8fc <msopt_get_argc+0x18>
        *argc = 0;
     8f0:	28000015 	stw	zero,0(r5)
        return MSOPT_RESULT_ERROR_ILLEGAL_OBJECT;
     8f4:	00800044 	movi	r2,1
     8f8:	f800283a 	ret
    }
    *argc = handle->argc;
     8fc:	20800117 	ldw	r2,4(r4)
     900:	28800015 	stw	r2,0(r5)
    return MSOPT_RESULT_OK;
     904:	0005883a 	mov	r2,zero
}
     908:	f800283a 	ret

0000090c <msopt_get_argv>:

MSOPT_RESULT msopt_get_argv(MSOPT *handle, int index, char *bufptr, int bufsiz)
{
    *bufptr = 0;
     90c:	30000005 	stb	zero,0(r6)
    if (handle->argc <= index) {
     910:	20800117 	ldw	r2,4(r4)
     914:	2880170e 	bge	r5,r2,974 <msopt_get_argv+0x68>
        return MSOPT_RESULT_ERROR_ILLEGAL_INDEX_NUMBER;
    }
    char *src = handle->info[index].head;
     918:	28800144 	addi	r2,r5,5
     91c:	100490fa 	slli	r2,r2,3
    char *des = bufptr;
    int i;
    for (i = 0; i < handle->info[index].length; i++) {
     920:	280a90fa 	slli	r5,r5,3
        if (i >= bufsiz - 1) {
     924:	39ffffc4 	addi	r7,r7,-1
    char *src = handle->info[index].head;
     928:	2085883a 	add	r2,r4,r2
     92c:	12000017 	ldw	r8,0(r2)
    for (i = 0; i < handle->info[index].length; i++) {
     930:	2149883a 	add	r4,r4,r5
     934:	0005883a 	mov	r2,zero
     938:	21400b17 	ldw	r5,44(r4)
     93c:	3087883a 	add	r3,r6,r2
     940:	11400316 	blt	r2,r5,950 <msopt_get_argv+0x44>
            *des = 0;
            return MSOPT_RESULT_ERROR_BUFFER_SIZE;
        }
        *des++ = *src++;
    }
    *des = 0;
     944:	18000005 	stb	zero,0(r3)
    return MSOPT_RESULT_OK;
     948:	0005883a 	mov	r2,zero
     94c:	f800283a 	ret
        if (i >= bufsiz - 1) {
     950:	11c00316 	blt	r2,r7,960 <msopt_get_argv+0x54>
            *des = 0;
     954:	18000005 	stb	zero,0(r3)
            return MSOPT_RESULT_ERROR_BUFFER_SIZE;
     958:	00800104 	movi	r2,4
     95c:	f800283a 	ret
        *des++ = *src++;
     960:	408b883a 	add	r5,r8,r2
     964:	29400003 	ldbu	r5,0(r5)
    for (i = 0; i < handle->info[index].length; i++) {
     968:	10800044 	addi	r2,r2,1
        *des++ = *src++;
     96c:	19400005 	stb	r5,0(r3)
    for (i = 0; i < handle->info[index].length; i++) {
     970:	003ff106 	br	938 <msopt_get_argv+0x2c>
        return MSOPT_RESULT_ERROR_ILLEGAL_INDEX_NUMBER;
     974:	00800084 	movi	r2,2
}
     978:	f800283a 	ret

0000097c <ntlibc_strcmp>:

int ntlibc_strcmp(const char *s1, const char *s2)
{
    char *p1 = (char *)s1;
    char *p2 = (char *)s2;
    while (*p1 || *p2) {
     97c:	20c00003 	ldbu	r3,0(r4)
        if (*p1 != *p2) {
     980:	28800003 	ldbu	r2,0(r5)
    while (*p1 || *p2) {
     984:	188cb03a 	or	r6,r3,r2
     988:	31803fcc 	andi	r6,r6,255
     98c:	3180201c 	xori	r6,r6,128
     990:	31bfe004 	addi	r6,r6,-128
     994:	3000021e 	bne	r6,zero,9a0 <ntlibc_strcmp+0x24>
        }
        p1++;
        p2++;
    }
    if (*p1 == *p2) {
        return 0;
     998:	0005883a 	mov	r2,zero
     99c:	f800283a 	ret
        if (*p1 != *p2) {
     9a0:	18c03fcc 	andi	r3,r3,255
     9a4:	10803fcc 	andi	r2,r2,255
     9a8:	18c0201c 	xori	r3,r3,128
     9ac:	1080201c 	xori	r2,r2,128
     9b0:	18ffe004 	addi	r3,r3,-128
     9b4:	10bfe004 	addi	r2,r2,-128
     9b8:	18800326 	beq	r3,r2,9c8 <ntlibc_strcmp+0x4c>
            return (*p1 < *p2) ? -1 : 1;
     9bc:	18800516 	blt	r3,r2,9d4 <ntlibc_strcmp+0x58>
     9c0:	00800044 	movi	r2,1
     9c4:	f800283a 	ret
        p1++;
     9c8:	21000044 	addi	r4,r4,1
        p2++;
     9cc:	29400044 	addi	r5,r5,1
     9d0:	003fea06 	br	97c <ntlibc_strcmp>
            return (*p1 < *p2) ? -1 : 1;
     9d4:	00bfffc4 	movi	r2,-1
    } else {
        return (*p1 < *p2) ? -1 : 1;
    }
}
     9d8:	f800283a 	ret

000009dc <ntlibc_atoi>:
  int cnt;
  int num = 0;
  int ofs = 0;
  int sign = 0;
  int scnt = 0;
  char *p = (char *)nptr;
     9dc:	200f883a 	mov	r7,r4
  int scnt = 0;
     9e0:	000b883a 	mov	r5,zero
  int sign = 0;
     9e4:	000d883a 	mov	r6,zero
  int ofs = 0;
     9e8:	0005883a 	mov	r2,zero
  while (*p != '\0') {
     9ec:	38c00007 	ldb	r3,0(r7)
     9f0:	18000b1e 	bne	r3,zero,a20 <ntlibc_atoi+0x44>
     9f4:	2089883a 	add	r4,r4,r2
  int num = 0;
     9f8:	0005883a 	mov	r2,zero
        }
      }
    }
    p++;
  }
  for (cnt = ofs; (nptr[cnt] >= '0') && (nptr[cnt] <= '9'); cnt++) {
     9fc:	20c00003 	ldbu	r3,0(r4)
     a00:	21000044 	addi	r4,r4,1
     a04:	18fff404 	addi	r3,r3,-48
     a08:	19403fcc 	andi	r5,r3,255
     a0c:	294002b0 	cmpltui	r5,r5,10
     a10:	2800191e 	bne	r5,zero,a78 <ntlibc_atoi+0x9c>
    num = 10 * num + (nptr[cnt] - '0');
  }
  if (sign) {
     a14:	30001f26 	beq	r6,zero,a94 <ntlibc_atoi+0xb8>
    return -num;
     a18:	0085c83a 	sub	r2,zero,r2
     a1c:	f800283a 	ret
  if (('0' <= c) && (c <= '9')) {
     a20:	1a3ff404 	addi	r8,r3,-48
     a24:	420002b0 	cmpltui	r8,r8,10
     a28:	4000031e 	bne	r8,zero,a38 <ntlibc_atoi+0x5c>
      if (*p == ' ') {
     a2c:	1a000818 	cmpnei	r8,r3,32
     a30:	4000031e 	bne	r8,zero,a40 <ntlibc_atoi+0x64>
        ofs++;
     a34:	10800044 	addi	r2,r2,1
    p++;
     a38:	39c00044 	addi	r7,r7,1
     a3c:	003feb06 	br	9ec <ntlibc_atoi+0x10>
      if (*p == '+') {
     a40:	1a000ad8 	cmpnei	r8,r3,43
     a44:	4000051e 	bne	r8,zero,a5c <ntlibc_atoi+0x80>
        ofs++;
     a48:	10800044 	addi	r2,r2,1
        if (scnt++ > 0) {
     a4c:	2800101e 	bne	r5,zero,a90 <ntlibc_atoi+0xb4>
        sign = 0;
     a50:	000d883a 	mov	r6,zero
     a54:	01400044 	movi	r5,1
     a58:	003ff706 	br	a38 <ntlibc_atoi+0x5c>
      if (*p == '-') {
     a5c:	18c00b58 	cmpnei	r3,r3,45
     a60:	183ff51e 	bne	r3,zero,a38 <ntlibc_atoi+0x5c>
        ofs++;
     a64:	10800044 	addi	r2,r2,1
        if (scnt++ > 0) {
     a68:	2800091e 	bne	r5,zero,a90 <ntlibc_atoi+0xb4>
     a6c:	01400044 	movi	r5,1
        sign = 1;
     a70:	01800044 	movi	r6,1
     a74:	003ff006 	br	a38 <ntlibc_atoi+0x5c>
    num = 10 * num + (nptr[cnt] - '0');
     a78:	108002a4 	muli	r2,r2,10
     a7c:	18c03fcc 	andi	r3,r3,255
     a80:	18c0201c 	xori	r3,r3,128
     a84:	18ffe004 	addi	r3,r3,-128
     a88:	1885883a 	add	r2,r3,r2
  for (cnt = ofs; (nptr[cnt] >= '0') && (nptr[cnt] <= '9'); cnt++) {
     a8c:	003fdb06 	br	9fc <ntlibc_atoi+0x20>
          return 0;
     a90:	0005883a 	mov	r2,zero
  } else {
    return num;
  }
}
     a94:	f800283a 	ret

00000a98 <_ZN15CriticalSectionC1Ev>:
static ALT_INLINE alt_irq_context ALT_ALWAYS_INLINE 
       alt_irq_disable_all (void)
{
  alt_irq_context context;

  NIOS2_READ_STATUS (context);
     a98:	0007303a 	rdctl	r3,status

  NIOS2_WRITE_STATUS (context & ~NIOS2_STATUS_PIE_MSK);
     a9c:	00bfff84 	movi	r2,-2
     aa0:	1884703a 	and	r2,r3,r2
     aa4:	1001703a 	wrctl	status,r2
 * 
 */
class CriticalSection {
public:
    CriticalSection(void) {
        _Context = alt_irq_disable_all();
     aa8:	20c00015 	stw	r3,0(r4)
        __builtin_sync();
     aac:	0001b03a 	sync
    }
     ab0:	f800283a 	ret

00000ab4 <_ZN15CriticalSectionD1Ev>:
    
    ~CriticalSection() {
     ab4:	defff104 	addi	sp,sp,-60
     ab8:	00800034 	movhi	r2,0
     abc:	dc000d15 	stw	r16,52(sp)
     ac0:	108a2204 	addi	r2,r2,10376
     ac4:	2021883a 	mov	r16,r4
     ac8:	d809883a 	mov	r4,sp
     acc:	dfc00e15 	stw	ra,56(sp)
     ad0:	d8800615 	stw	r2,24(sp)
     ad4:	d8000715 	stw	zero,28(sp)
     ad8:	00041a80 	call	41a8 <_Unwind_SjLj_Register>
        alt_irq_enable_all(_Context);
     adc:	80800017 	ldw	r2,0(r16)
{
#if (NIOS2_NUM_OF_SHADOW_REG_SETS > 0) || (defined NIOS2_EIC_PRESENT) || \
    (defined NIOS2_MMU_PRESENT) || (defined NIOS2_MPU_PRESENT)
  alt_irq_context status;
  
  NIOS2_READ_STATUS (status);
     ae0:	0007303a 	rdctl	r3,status
  
  status &= ~NIOS2_STATUS_PIE_MSK;
     ae4:	013fff84 	movi	r4,-2
     ae8:	1906703a 	and	r3,r3,r4
  status |= (context & NIOS2_STATUS_PIE_MSK);
     aec:	1080004c 	andi	r2,r2,1
     af0:	10c4b03a 	or	r2,r2,r3
  
  NIOS2_WRITE_STATUS (status);
     af4:	1001703a 	wrctl	status,r2
     af8:	d809883a 	mov	r4,sp
     afc:	00041c00 	call	41c0 <_Unwind_SjLj_Unregister>
    }
     b00:	dfc00e17 	ldw	ra,56(sp)
     b04:	dc000d17 	ldw	r16,52(sp)
     b08:	dec00f04 	addi	sp,sp,60
     b0c:	f800283a 	ret

00000b10 <_ZN18CentralizedMonitor5StartEv>:
    ResetMotorInterruptFlags();
}

void CentralizedMonitor::Start(void) {
    // pio_0
    IOWR_ALTERA_AVALON_PIO_IRQ_MASK(PIO_0_BASE, Pio0Pulse1kHz);
     b10:	00c00044 	movi	r3,1
     b14:	00b80214 	movui	r2,57352
     b18:	10c00035 	stwio	r3,0(r2)
    IOWR_ALTERA_AVALON_PIO_EDGE_CAP(PIO_0_BASE, 0);
     b1c:	00b80314 	movui	r2,57356
     b20:	10000035 	stwio	zero,0(r2)

    // pio_1
    IOWR_ALTERA_AVALON_PIO_IRQ_MASK(PIO_1_BASE, Pio1Motor5SwitchFault | Pio1Motor4SwitchFault | Pio1Motor3SwitchFault | Pio1Motor2SwitchFault | Pio1Motor1SwitchFault | Pio1ModuleSleep | Pio1FpgaStop);
     b24:	00c03f84 	movi	r3,254
     b28:	00b84214 	movui	r2,57608
     b2c:	10c00035 	stwio	r3,0(r2)

    // timer_0
    IOWR_ALTERA_AVALON_TIMER_CONTROL(TIMER_0_BASE, ALTERA_AVALON_TIMER_CONTROL_ITO_MSK | ALTERA_AVALON_TIMER_CONTROL_CONT_MSK | ALTERA_AVALON_TIMER_CONTROL_START_MSK);
     b30:	00c001c4 	movi	r3,7
     b34:	00b20114 	movui	r2,51204
     b38:	10c00035 	stwio	r3,0(r2)
    IOWR_ALTERA_AVALON_TIMER_STATUS(TIMER_0_BASE, 0);
     b3c:	00b20014 	movui	r2,51200
     b40:	10000035 	stwio	zero,0(r2)
    IOWR_ALTERA_AVALON_TIMER_PERIOD_0(TIMER_0_BASE, 0);
     b44:	00b20214 	movui	r2,51208
     b48:	10000035 	stwio	zero,0(r2)
}
     b4c:	f800283a 	ret

00000b50 <_ZN18CentralizedMonitor13SetErrorFlagsEm>:

    _ErrorFlags = new_error_flags;
    SharedMemory::WriteErrorFlags(new_error_flags);
}

void CentralizedMonitor::SetErrorFlags(uint32_t error_flags) {
     b50:	00800034 	movhi	r2,0
     b54:	deffef04 	addi	sp,sp,-68
     b58:	108a2204 	addi	r2,r2,10376
     b5c:	d8800715 	stw	r2,28(sp)
     b60:	00800034 	movhi	r2,0
     b64:	d9000015 	stw	r4,0(sp)
     b68:	1082f604 	addi	r2,r2,3032
     b6c:	d9000104 	addi	r4,sp,4
     b70:	dfc01015 	stw	ra,64(sp)
     b74:	d8800a15 	stw	r2,40(sp)
     b78:	df000f15 	stw	fp,60(sp)
     b7c:	d8000815 	stw	zero,32(sp)
     b80:	df000915 	stw	fp,36(sp)
     b84:	dec00b15 	stw	sp,44(sp)
     b88:	00041a80 	call	41a8 <_Unwind_SjLj_Register>
    uint32_t previous = _ErrorFlags;
     b8c:	d0a01417 	ldw	r2,-32688(gp)
    uint32_t new_error_flags;
    {
        CriticalSection cs;
     b90:	d9000e04 	addi	r4,sp,56
     b94:	0000a980 	call	a98 <_ZN15CriticalSectionC1Ev>
        new_error_flags = _ErrorFlags | error_flags;
     b98:	d8c00017 	ldw	r3,0(sp)
     b9c:	d0a01417 	ldw	r2,-32688(gp)
     ba0:	10c4b03a 	or	r2,r2,r3
     ba4:	d8800015 	stw	r2,0(sp)
    /**
     * 
     * @param new_error_flags 
     */
    static void WriteErrorFlags(uint32_t new_error_flags){
        __builtin_stwio(&_SharedMemory.ErrorFlags, new_error_flags);
     ba8:	d8c00017 	ldw	r3,0(sp)
        _ErrorFlags = new_error_flags;
     bac:	d0a01415 	stw	r2,-32688(gp)
     bb0:	00800074 	movhi	r2,1
     bb4:	10ec0035 	stwio	r3,-20480(r2)
        CriticalSection cs;
     bb8:	d9000e04 	addi	r4,sp,56
     bbc:	0000ab40 	call	ab4 <_ZN15CriticalSectionD1Ev>
#if DEBUG_PRINTF
    if (new_error_flags != previous) {
        printf("Error=%08X\n", (unsigned int)new_error_flags);
    }
#endif
    if (new_error_flags != 0) {
     bc0:	d8800017 	ldw	r2,0(sp)
     bc4:	10000426 	beq	r2,zero,bd8 <_ZN18CentralizedMonitor13SetErrorFlagsEm+0x88>
        WheelController::StopControl();
     bc8:	00bfffc4 	movi	r2,-1
     bcc:	d8800215 	stw	r2,8(sp)
     bd0:	00020e80 	call	20e8 <_ZN15WheelController11StopControlEv>
        DribbleController::StopControl();
     bd4:	00012380 	call	1238 <_ZN17DribbleController11StopControlEv>
     bd8:	d9000104 	addi	r4,sp,4
     bdc:	00041c00 	call	41c0 <_Unwind_SjLj_Unregister>
    }
}
     be0:	dfc01017 	ldw	ra,64(sp)
     be4:	df000f17 	ldw	fp,60(sp)
     be8:	dec01104 	addi	sp,sp,68
     bec:	f800283a 	ret

00000bf0 <_ZN18CentralizedMonitor13Adc2KeepAliveEi>:
    _Adc2Timeout = ADC2_TIMEOUT_THRESHOLD;
     bf0:	00800c84 	movi	r2,50
void CentralizedMonitor::Adc2KeepAlive(int dc48v_voltage) {
     bf4:	deffff04 	addi	sp,sp,-4
    _Adc2Timeout = ADC2_TIMEOUT_THRESHOLD;
     bf8:	d0a00015 	stw	r2,-32768(gp)
void CentralizedMonitor::Adc2KeepAlive(int dc48v_voltage) {
     bfc:	dfc00015 	stw	ra,0(sp)
    if (dc48v_voltage < DC48V_UNDER_VOLTAGE_THRESHOLD) {
     c00:	209d4c08 	cmpgei	r2,r4,30000
     c04:	10000d1e 	bne	r2,zero,c3c <_ZN18CentralizedMonitor13Adc2KeepAliveEi+0x4c>
        SetErrorFlags(ErrorCauseDc48vUnderVoltage);
     c08:	01000104 	movi	r4,4
        SetErrorFlags(ErrorCauseDc48vOverVoltage);
     c0c:	0000b500 	call	b50 <_ZN18CentralizedMonitor13SetErrorFlagsEm>
    ++cnt;
     c10:	d0a01617 	ldw	r2,-32680(gp)
     c14:	10800044 	addi	r2,r2,1
     c18:	d0a01615 	stw	r2,-32680(gp)
    if (cnt == 5) {
     c1c:	10c00158 	cmpnei	r3,r2,5
     c20:	18000a1e 	bne	r3,zero,c4c <_ZN18CentralizedMonitor13Adc2KeepAliveEi+0x5c>
    static void SetMotor1Enabled(bool enabled) {
        if (enabled == false) {
            IOWR_ALTERA_AVALON_PIO_CLEAR_BITS(PIO_2_BASE, Pio2Motor1Led);
        }
        else {
            IOWR_ALTERA_AVALON_PIO_SET_BITS(PIO_2_BASE, Pio2Motor1Led);
     c24:	00c00044 	movi	r3,1
     c28:	00b88414 	movui	r2,57872
            IOWR_ALTERA_AVALON_PIO_CLEAR_BITS(PIO_2_BASE, Pio2Motor1Led);
     c2c:	10c00035 	stwio	r3,0(r2)
}
     c30:	dfc00017 	ldw	ra,0(sp)
     c34:	dec00104 	addi	sp,sp,4
     c38:	f800283a 	ret
    else if (DC48V_OVER_VOLTAGE_THRESHOLD < dc48v_voltage) {
     c3c:	00b34514 	movui	r2,52500
     c40:	113ff30e 	bge	r2,r4,c10 <_ZN18CentralizedMonitor13Adc2KeepAliveEi+0x20>
        SetErrorFlags(ErrorCauseDc48vOverVoltage);
     c44:	01000204 	movi	r4,8
     c48:	003ff006 	br	c0c <_ZN18CentralizedMonitor13Adc2KeepAliveEi+0x1c>
    else if (10 <= cnt) {
     c4c:	10800290 	cmplti	r2,r2,10
     c50:	103ff71e 	bne	r2,zero,c30 <_ZN18CentralizedMonitor13Adc2KeepAliveEi+0x40>
        cnt = 0;
     c54:	d0201615 	stw	zero,-32680(gp)
     c58:	00c00044 	movi	r3,1
     c5c:	00b88514 	movui	r2,57876
     c60:	003ff206 	br	c2c <_ZN18CentralizedMonitor13Adc2KeepAliveEi+0x3c>

00000c64 <_ZN18CentralizedMonitor13SetFaultFlagsEm>:

void CentralizedMonitor::SetFaultFlags(uint32_t fault_flags) {
     c64:	00800034 	movhi	r2,0
     c68:	deffef04 	addi	sp,sp,-68
     c6c:	108a2204 	addi	r2,r2,10376
     c70:	d8800715 	stw	r2,28(sp)
     c74:	00800034 	movhi	r2,0
     c78:	d9000015 	stw	r4,0(sp)
     c7c:	10833b04 	addi	r2,r2,3308
     c80:	d9000104 	addi	r4,sp,4
     c84:	dfc01015 	stw	ra,64(sp)
     c88:	d8800a15 	stw	r2,40(sp)
     c8c:	df000f15 	stw	fp,60(sp)
     c90:	d8000815 	stw	zero,32(sp)
     c94:	df000915 	stw	fp,36(sp)
     c98:	dec00b15 	stw	sp,44(sp)
     c9c:	00041a80 	call	41a8 <_Unwind_SjLj_Register>
    uint32_t previous = _FaultFlags;
     ca0:	d0a01317 	ldw	r2,-32692(gp)
    uint32_t new_fault_flags;
    {
        CriticalSection cs;
     ca4:	d9000e04 	addi	r4,sp,56
     ca8:	0000a980 	call	a98 <_ZN15CriticalSectionC1Ev>
        new_fault_flags = _FaultFlags | fault_flags;
     cac:	d8c00017 	ldw	r3,0(sp)
     cb0:	d0a01317 	ldw	r2,-32692(gp)
     cb4:	10c4b03a 	or	r2,r2,r3
     cb8:	d8800015 	stw	r2,0(sp)
    /**
     * 
     * @param new_fault_flags 
     */
    static void WriteFaultFlags(uint32_t new_fault_flags){
        __builtin_stwio(&_SharedMemory.FaultFlags, new_fault_flags);
     cbc:	d8c00017 	ldw	r3,0(sp)
        _FaultFlags = new_fault_flags;
     cc0:	d0a01315 	stw	r2,-32692(gp)
     cc4:	00800074 	movhi	r2,1
     cc8:	10ec0135 	stwio	r3,-20476(r2)
        CriticalSection cs;
     ccc:	d9000e04 	addi	r4,sp,56
     cd0:	0000ab40 	call	ab4 <_ZN15CriticalSectionD1Ev>
#if DEBUG_PRINTF
    if (new_fault_flags != previous) {
        printf("Fault=%08X\n", (unsigned int)new_fault_flags);
    }
#endif
    if (new_fault_flags != 0) {
     cd4:	d8800017 	ldw	r2,0(sp)
     cd8:	10000426 	beq	r2,zero,cec <_ZN18CentralizedMonitor13SetFaultFlagsEm+0x88>
        WheelController::StopControl();
     cdc:	00bfffc4 	movi	r2,-1
     ce0:	d8800215 	stw	r2,8(sp)
     ce4:	00020e80 	call	20e8 <_ZN15WheelController11StopControlEv>
        DribbleController::StopControl();
     ce8:	00012380 	call	1238 <_ZN17DribbleController11StopControlEv>
     cec:	d9000104 	addi	r4,sp,4
     cf0:	00041c00 	call	41c0 <_Unwind_SjLj_Unregister>
    }
}
     cf4:	dfc01017 	ldw	ra,64(sp)
     cf8:	df000f17 	ldw	fp,60(sp)
     cfc:	dec01104 	addi	sp,sp,68
     d00:	f800283a 	ret

00000d04 <_ZN18CentralizedMonitor11Pio1HandlerEPv>:

    // 
    DoPeriodicCommonWork();
}

void CentralizedMonitor::Pio1Handler(void *context) {
     d04:	defffe04 	addi	sp,sp,-8
    // pio_1I/O
    uint32_t irq_masks = IORD_ALTERA_AVALON_PIO_IRQ_MASK(PIO_1_BASE);
     d08:	00b84214 	movui	r2,57608
void CentralizedMonitor::Pio1Handler(void *context) {
     d0c:	dfc00115 	stw	ra,4(sp)
     d10:	dc000015 	stw	r16,0(sp)
    uint32_t irq_masks = IORD_ALTERA_AVALON_PIO_IRQ_MASK(PIO_1_BASE);
     d14:	10c00037 	ldwio	r3,0(r2)
    uint32_t irq_flags = IORD_ALTERA_AVALON_PIO_DATA(PIO_1_BASE) & irq_masks;
     d18:	00b84014 	movui	r2,57600
     d1c:	14000037 	ldwio	r16,0(r2)
     d20:	80e0703a 	and	r16,r16,r3
    IOWR_ALTERA_AVALON_PIO_IRQ_MASK(PIO_1_BASE, irq_masks & ~irq_flags);
     d24:	0404303a 	nor	r2,zero,r16
     d28:	10c4703a 	and	r2,r2,r3
     d2c:	00f84214 	movui	r3,57608
     d30:	18800035 	stwio	r2,0(r3)

    // 
    if (irq_flags & Pio1ModuleSleep) {
     d34:	8080008c 	andi	r2,r16,2
     d38:	10000226 	beq	r2,zero,d44 <_ZN18CentralizedMonitor11Pio1HandlerEPv+0x40>
        SetErrorFlags(ErrorCauseModuleSleep);
     d3c:	01000044 	movi	r4,1
     d40:	0000b500 	call	b50 <_ZN18CentralizedMonitor13SetErrorFlagsEm>
    }
    if (irq_flags & Pio1FpgaStop) {
     d44:	8080010c 	andi	r2,r16,4
     d48:	10000226 	beq	r2,zero,d54 <_ZN18CentralizedMonitor11Pio1HandlerEPv+0x50>
        SetErrorFlags(ErrorCauseFpgaStop);
     d4c:	01000084 	movi	r4,2
     d50:	0000b500 	call	b50 <_ZN18CentralizedMonitor13SetErrorFlagsEm>
    }

    // 
    if (irq_flags & Pio1Motor1SwitchFault) {
     d54:	8080020c 	andi	r2,r16,8
     d58:	10000526 	beq	r2,zero,d70 <_ZN18CentralizedMonitor11Pio1HandlerEPv+0x6c>
        SetFaultFlags(FaultCauseMotor1LoadSwitch);
     d5c:	01040004 	movi	r4,4096
     d60:	0000c640 	call	c64 <_ZN18CentralizedMonitor13SetFaultFlagsEm>
// 
class LoadSwitch {
public:
    static void SetMotor1Enabled(bool enabled) {
        if (enabled == false) {
            IOWR_ALTERA_AVALON_PIO_CLEAR_BITS(PIO_2_BASE, Pio2Motor1SwitchEnable);
     d64:	00c00804 	movi	r3,32
     d68:	00b88514 	movui	r2,57876
     d6c:	10c00035 	stwio	r3,0(r2)
        LoadSwitch::SetMotor1Enabled(false);
    }
    if (irq_flags & Pio1Motor2SwitchFault) {
     d70:	8080040c 	andi	r2,r16,16
     d74:	10000526 	beq	r2,zero,d8c <_ZN18CentralizedMonitor11Pio1HandlerEPv+0x88>
        SetFaultFlags(FaultCauseMotor2LoadSwitch);
     d78:	01080004 	movi	r4,8192
     d7c:	0000c640 	call	c64 <_ZN18CentralizedMonitor13SetFaultFlagsEm>
        }
    }

    static void SetMotor2Enabled(bool enabled) {
        if (enabled == false) {
            IOWR_ALTERA_AVALON_PIO_CLEAR_BITS(PIO_2_BASE, Pio2Motor2SwitchEnable);
     d80:	00c01004 	movi	r3,64
     d84:	00b88514 	movui	r2,57876
     d88:	10c00035 	stwio	r3,0(r2)
        LoadSwitch::SetMotor2Enabled(false);
    }
    if (irq_flags & Pio1Motor3SwitchFault) {
     d8c:	8080080c 	andi	r2,r16,32
     d90:	10000526 	beq	r2,zero,da8 <_ZN18CentralizedMonitor11Pio1HandlerEPv+0xa4>
        SetFaultFlags(FaultCauseMotor3LoadSwitch);
     d94:	01100004 	movi	r4,16384
     d98:	0000c640 	call	c64 <_ZN18CentralizedMonitor13SetFaultFlagsEm>
        }
    }

    static void SetMotor3Enabled(bool enabled) {
        if (enabled == false) {
            IOWR_ALTERA_AVALON_PIO_CLEAR_BITS(PIO_2_BASE, Pio2Motor3SwitchEnable);
     d9c:	00c02004 	movi	r3,128
     da0:	00b88514 	movui	r2,57876
     da4:	10c00035 	stwio	r3,0(r2)
        LoadSwitch::SetMotor3Enabled(false);
    }
    if (irq_flags & Pio1Motor4SwitchFault) {
     da8:	8080100c 	andi	r2,r16,64
     dac:	10000526 	beq	r2,zero,dc4 <_ZN18CentralizedMonitor11Pio1HandlerEPv+0xc0>
        SetFaultFlags(FaultCauseMotor4LoadSwitch);
     db0:	01200014 	movui	r4,32768
     db4:	0000c640 	call	c64 <_ZN18CentralizedMonitor13SetFaultFlagsEm>
        }
    }

    static void SetMotor4Enabled(bool enabled) {
        if (enabled == false) {
            IOWR_ALTERA_AVALON_PIO_CLEAR_BITS(PIO_2_BASE, Pio2Motor4SwitchEnable);
     db8:	00c04004 	movi	r3,256
     dbc:	00b88514 	movui	r2,57876
     dc0:	10c00035 	stwio	r3,0(r2)
        LoadSwitch::SetMotor4Enabled(false);
    }
    if (irq_flags & Pio1Motor5SwitchFault) {
     dc4:	8400200c 	andi	r16,r16,128
     dc8:	80000526 	beq	r16,zero,de0 <_ZN18CentralizedMonitor11Pio1HandlerEPv+0xdc>
        SetFaultFlags(FaultCauseMotor5LoadSwitch);
     dcc:	01000074 	movhi	r4,1
     dd0:	0000c640 	call	c64 <_ZN18CentralizedMonitor13SetFaultFlagsEm>
        }
    }

    static void SetMotor5Enabled(bool enabled) {
        if (enabled == false) {
            IOWR_ALTERA_AVALON_PIO_CLEAR_BITS(PIO_2_BASE, Pio2Motor5SwitchEnable);
     dd4:	00c08004 	movi	r3,512
     dd8:	00b88514 	movui	r2,57876
     ddc:	10c00035 	stwio	r3,0(r2)
        LoadSwitch::SetMotor5Enabled(false);
    }
}
     de0:	dfc00117 	ldw	ra,4(sp)
     de4:	dc000017 	ldw	r16,0(sp)
     de8:	dec00204 	addi	sp,sp,8
     dec:	f800283a 	ret

00000df0 <_ZN18CentralizedMonitor23VectorControllerHandlerEPv>:

void CentralizedMonitor::VectorControllerHandler(void *context) {
     df0:	defffe04 	addi	sp,sp,-8
	static VectorControllerStatus GetStatus(void) {
        return VectorControllerStatus(__builtin_ldhuio(&reinterpret_cast<Register_t*>(BASE)->STATUS));
	}

	static VectorControllerStatus GetInterruptFlag(void) {
		return VectorControllerStatus(__builtin_ldhuio(&reinterpret_cast<Register_t*>(BASE)->INTFLAG));
     df4:	00bc0094 	movui	r2,61442
     df8:	dfc00115 	stw	ra,4(sp)
     dfc:	dc000015 	stw	r16,0(sp)
     e00:	1400002b 	ldhuio	r16,0(r2)
        return (~Status >> 4) & 0xF;
     e04:	843fffcc 	andi	r16,r16,65535
     e08:	0420303a 	nor	r16,zero,r16
     e0c:	8008917a 	slli	r4,r16,5
    auto int_flags = VectorController::GetInterruptFlag();
#if DEBUG_PRINTF
    DEBUG_PRINTF("VC:INT=%04X,STA=%04X\n", int_flags.Status, VectorController::GetStatus().Status);
#endif
    int hall_fault = int_flags.HallSensorFault();
    SetErrorFlags(hall_fault * ErrorCauseMotor1HallSensor);
     e10:	2107800c 	andi	r4,r4,7680
     e14:	0000b500 	call	b50 <_ZN18CentralizedMonitor13SetErrorFlagsEm>
    if (~IORD_ALTERA_AVALON_PIO_DATA(PIO_1_BASE) & Pio1FpgaStop) {
     e18:	00b84014 	movui	r2,57600
     e1c:	10800037 	ldwio	r2,0(r2)
     e20:	1080010c 	andi	r2,r2,4
     e24:	1000091e 	bne	r2,zero,e4c <_ZN18CentralizedMonitor23VectorControllerHandlerEPv+0x5c>
        return (~Status >> 12) & 0xF;
     e28:	8008d2ba 	srli	r4,r16,10
        return (~Status >> 8) & 0xF;
     e2c:	8020d07a 	srli	r16,r16,1
        // DRV8312OTW, FAULT12VFPGA_STOP
        int driver_otw = int_flags.OverTemperatureFault();
        int driver_fault = int_flags.OverCurrentFault();
        SetFaultFlags((driver_otw * FaultCauseMotor1OverTemperature) | (driver_fault * FaultCauseMotor1OverCurrent));
     e30:	21000f0c 	andi	r4,r4,60
     e34:	8401e00c 	andi	r16,r16,1920
     e38:	2408b03a 	or	r4,r4,r16
    }
}
     e3c:	dfc00117 	ldw	ra,4(sp)
     e40:	dc000017 	ldw	r16,0(sp)
     e44:	dec00204 	addi	sp,sp,8
        SetFaultFlags((driver_otw * FaultCauseMotor1OverTemperature) | (driver_fault * FaultCauseMotor1OverCurrent));
     e48:	0000c641 	jmpi	c64 <_ZN18CentralizedMonitor13SetFaultFlagsEm>
}
     e4c:	dfc00117 	ldw	ra,4(sp)
     e50:	dc000017 	ldw	r16,0(sp)
     e54:	dec00204 	addi	sp,sp,8
     e58:	f800283a 	ret

00000e5c <_ZN18CentralizedMonitor22MotorControllerHandlerEPv>:

void CentralizedMonitor::MotorControllerHandler(void *context) {
     e5c:	defffe04 	addi	sp,sp,-8
    static MotorControllerStatus GetStatus(void) {
        return MotorControllerStatus(__builtin_ldhuio(&reinterpret_cast<Register_t*>(BASE)->STATUS));
    }

    static MotorControllerStatus GetInterruptFlag(void) {
        return MotorControllerStatus(__builtin_ldhuio(&reinterpret_cast<Register_t*>(BASE)->INTFLAG));
     e60:	00bc4094 	movui	r2,61698
     e64:	dfc00115 	stw	ra,4(sp)
     e68:	dc000015 	stw	r16,0(sp)
     e6c:	1100002b 	ldhuio	r4,0(r2)
     e70:	243fffcc 	andi	r16,r4,65535
        return ~Status & 0x1;
     e74:	0108303a 	nor	r4,zero,r4
     e78:	2100004c 	andi	r4,r4,1
    auto int_flags = MotorController::GetInterruptFlag();
#if DEBUG_PRINTF
    DEBUG_PRINTF("MC:INT=%04X,STA=%04X\n", int_flags.Status, MotorController::GetStatus().Status);
#endif
    int hall_fault = int_flags.HallSensorFault();
    SetErrorFlags(hall_fault * ErrorCauseMotor5HallSensor);
     e7c:	2008937a 	slli	r4,r4,13
     e80:	0000b500 	call	b50 <_ZN18CentralizedMonitor13SetErrorFlagsEm>
    if (~IORD_ALTERA_AVALON_PIO_DATA(PIO_1_BASE) & Pio1FpgaStop) {
     e84:	00b84014 	movui	r2,57600
     e88:	10800037 	ldwio	r2,0(r2)
     e8c:	1080010c 	andi	r2,r2,4
     e90:	10000a1e 	bne	r2,zero,ebc <_ZN18CentralizedMonitor22MotorControllerHandlerEPv+0x60>
        return (~Status & 0x4) >> 2;
     e94:	0404303a 	nor	r2,zero,r16
     e98:	1008913a 	slli	r4,r2,4
        return (~Status & 0x2) >> 1;
     e9c:	100492ba 	slli	r2,r2,10
        // DRV8312OTW, FAULT12VFPGA_STOP
        int driver_otw = int_flags.OverTemperatureFault();
        int driver_fault = int_flags.OverCurrentFault();
        SetFaultFlags((driver_otw * FaultCauseMotor5OverTemperature) | (driver_fault * FaultCauseMotor5OverCurrent));
     ea0:	2100100c 	andi	r4,r4,64
     ea4:	1082000c 	andi	r2,r2,2048
     ea8:	2088b03a 	or	r4,r4,r2
    }
}
     eac:	dfc00117 	ldw	ra,4(sp)
     eb0:	dc000017 	ldw	r16,0(sp)
     eb4:	dec00204 	addi	sp,sp,8
        SetFaultFlags((driver_otw * FaultCauseMotor5OverTemperature) | (driver_fault * FaultCauseMotor5OverCurrent));
     eb8:	0000c641 	jmpi	c64 <_ZN18CentralizedMonitor13SetFaultFlagsEm>
}
     ebc:	dfc00117 	ldw	ra,4(sp)
     ec0:	dc000017 	ldw	r16,0(sp)
     ec4:	dec00204 	addi	sp,sp,8
     ec8:	f800283a 	ret

00000ecc <_ZN18CentralizedMonitor24ResetMotorInterruptFlagsEv>:
        return MotorControllerStatus(__builtin_ldhuio(&reinterpret_cast<Register_t*>(BASE)->INTFLAG));
     ecc:	00bc4094 	movui	r2,61698
     ed0:	1080002b 	ldhuio	r2,0(r2)
    static void ClearFault(void) {
        __builtin_sthio(&reinterpret_cast<Register_t*>(BASE)->FAULT, 0x2);
    }

    static void ResetFault(void) {
        __builtin_sthio(&reinterpret_cast<Register_t*>(BASE)->FAULT, 0x3);
     ed4:	008000c4 	movi	r2,3
     ed8:	00fc4114 	movui	r3,61700
     edc:	1880002d 	sthio	r2,0(r3)
		return VectorControllerStatus(__builtin_ldhuio(&reinterpret_cast<Register_t*>(BASE)->INTFLAG));
     ee0:	00fc0094 	movui	r3,61442
     ee4:	18c0002b 	ldhuio	r3,0(r3)
	static void ClearFault(void) {
		__builtin_sthio(&reinterpret_cast<Register_t*>(BASE)->FAULT, 0x2);
	}

	static void ResetFault(void) {
        __builtin_sthio(&reinterpret_cast<Register_t*>(BASE)->FAULT, 0x3);
     ee8:	00fc0114 	movui	r3,61444
     eec:	1880002d 	sthio	r2,0(r3)
    // GetInterruptFlag()ResetFault()
    (void)MotorController::GetInterruptFlag();
    MotorController::ResetFault();
    (void)VectorController::GetInterruptFlag();
    VectorController::ResetFault();
}
     ef0:	f800283a 	ret

00000ef4 <_ZN18CentralizedMonitor10InitializeEv>:
void CentralizedMonitor::Initialize(void) {
     ef4:	defffe04 	addi	sp,sp,-8
     ef8:	dfc00115 	stw	ra,4(sp)
    PERF_RESET(reinterpret_cast<void*>(PERFORMANCE_COUNTER_0_BASE));
     efc:	00c00044 	movi	r3,1
     f00:	00b1c014 	movui	r2,50944
     f04:	10c00035 	stwio	r3,0(r2)
    PERF_START_MEASURING(reinterpret_cast<void*>(PERFORMANCE_COUNTER_0_BASE));
     f08:	00b1c114 	movui	r2,50948
     f0c:	10000035 	stwio	zero,0(r2)
    alt_ic_isr_register(TIMER_0_IRQ_INTERRUPT_CONTROLLER_ID, TIMER_0_IRQ, TimerHandler, nullptr, nullptr);
     f10:	01800034 	movhi	r6,0
     f14:	d8000015 	stw	zero,0(sp)
     f18:	000f883a 	mov	r7,zero
     f1c:	31847504 	addi	r6,r6,4564
     f20:	01400044 	movi	r5,1
     f24:	0009883a 	mov	r4,zero
     f28:	0005a700 	call	5a70 <alt_ic_isr_register>
    alt_ic_isr_register(PIO_0_IRQ_INTERRUPT_CONTROLLER_ID, PIO_0_IRQ, Pio0Handler, nullptr, nullptr);
     f2c:	01800034 	movhi	r6,0
     f30:	d8000015 	stw	zero,0(sp)
     f34:	000f883a 	mov	r7,zero
     f38:	31848004 	addi	r6,r6,4608
     f3c:	01400084 	movi	r5,2
     f40:	0009883a 	mov	r4,zero
     f44:	0005a700 	call	5a70 <alt_ic_isr_register>
    alt_ic_isr_register(PIO_1_IRQ_INTERRUPT_CONTROLLER_ID, PIO_1_IRQ, Pio1Handler, nullptr, nullptr);
     f48:	01800034 	movhi	r6,0
     f4c:	d8000015 	stw	zero,0(sp)
     f50:	000f883a 	mov	r7,zero
     f54:	31834104 	addi	r6,r6,3332
     f58:	014000c4 	movi	r5,3
     f5c:	0009883a 	mov	r4,zero
     f60:	0005a700 	call	5a70 <alt_ic_isr_register>
    alt_ic_isr_register(VECTOR_CONTROLLER_MASTER_0_IRQ_INTERRUPT_CONTROLLER_ID, VECTOR_CONTROLLER_MASTER_0_IRQ, VectorControllerHandler, nullptr, nullptr);
     f64:	01800034 	movhi	r6,0
     f68:	d8000015 	stw	zero,0(sp)
     f6c:	000f883a 	mov	r7,zero
     f70:	31837c04 	addi	r6,r6,3568
     f74:	014001c4 	movi	r5,7
     f78:	0009883a 	mov	r4,zero
     f7c:	0005a700 	call	5a70 <alt_ic_isr_register>
    alt_ic_isr_register(MOTOR_CONTROLLER_5_IRQ_INTERRUPT_CONTROLLER_ID, MOTOR_CONTROLLER_5_IRQ, MotorControllerHandler, nullptr, nullptr);
     f80:	01800034 	movhi	r6,0
     f84:	d8000015 	stw	zero,0(sp)
     f88:	000f883a 	mov	r7,zero
     f8c:	31839704 	addi	r6,r6,3676
     f90:	01400204 	movi	r5,8
     f94:	0009883a 	mov	r4,zero
     f98:	0005a700 	call	5a70 <alt_ic_isr_register>
    static void SetAllOff(void) {
        IOWR_ALTERA_AVALON_PIO_CLEAR_BITS(PIO_2_BASE, Pio2Motor5SwitchEnable | Pio2Motor4SwitchEnable | Pio2Motor3SwitchEnable | Pio2Motor2SwitchEnable | Pio2Motor1SwitchEnable);
    }

    static void SetAllOn(void) {
        IOWR_ALTERA_AVALON_PIO_SET_BITS(PIO_2_BASE, Pio2Motor5SwitchEnable | Pio2Motor4SwitchEnable | Pio2Motor3SwitchEnable | Pio2Motor2SwitchEnable | Pio2Motor1SwitchEnable);
     f9c:	00c0f804 	movi	r3,992
     fa0:	00b88414 	movui	r2,57872
     fa4:	10c00035 	stwio	r3,0(r2)
    usleep(1000);
     fa8:	0100fa04 	movi	r4,1000
     fac:	00054f80 	call	54f8 <usleep>
}
     fb0:	dfc00117 	ldw	ra,4(sp)
     fb4:	dec00204 	addi	sp,sp,8
    ResetMotorInterruptFlags();
     fb8:	0000ecc1 	jmpi	ecc <_ZN18CentralizedMonitor24ResetMotorInterruptFlagsEv>

00000fbc <_ZN18CentralizedMonitor15ClearErrorFlagsEv>:
void CentralizedMonitor::ClearErrorFlags(void) {
     fbc:	00800034 	movhi	r2,0
     fc0:	deffef04 	addi	sp,sp,-68
     fc4:	108a2204 	addi	r2,r2,10376
     fc8:	d8800715 	stw	r2,28(sp)
     fcc:	00800034 	movhi	r2,0
     fd0:	10842004 	addi	r2,r2,4224
     fd4:	d9000104 	addi	r4,sp,4
     fd8:	d8800a15 	stw	r2,40(sp)
     fdc:	dfc01015 	stw	ra,64(sp)
     fe0:	df000f15 	stw	fp,60(sp)
     fe4:	d8000815 	stw	zero,32(sp)
     fe8:	df000915 	stw	fp,36(sp)
     fec:	dec00b15 	stw	sp,44(sp)
     ff0:	00041a80 	call	41a8 <_Unwind_SjLj_Register>
    CriticalSection cs;
     ff4:	d9000e04 	addi	r4,sp,56
     ff8:	0000a980 	call	a98 <_ZN15CriticalSectionC1Ev>
    uint32_t new_error_flags = _ErrorFlags;
     ffc:	d0a01417 	ldw	r2,-32688(gp)
    IOWR_ALTERA_AVALON_PIO_IRQ_MASK(PIO_1_BASE, Pio1Motor5SwitchFault | Pio1Motor4SwitchFault | Pio1Motor3SwitchFault | Pio1Motor2SwitchFault | Pio1Motor1SwitchFault | Pio1ModuleSleep | Pio1FpgaStop);
    1000:	00c03f84 	movi	r3,254
    uint32_t new_error_flags = _ErrorFlags;
    1004:	d8800015 	stw	r2,0(sp)
    IOWR_ALTERA_AVALON_PIO_IRQ_MASK(PIO_1_BASE, Pio1Motor5SwitchFault | Pio1Motor4SwitchFault | Pio1Motor3SwitchFault | Pio1Motor2SwitchFault | Pio1Motor1SwitchFault | Pio1ModuleSleep | Pio1FpgaStop);
    1008:	00b84214 	movui	r2,57608
    100c:	10c00035 	stwio	r3,0(r2)
    uint32_t pio_1_data = IORD_ALTERA_AVALON_PIO_DATA(PIO_1_BASE);
    1010:	00b84014 	movui	r2,57600
    1014:	10800037 	ldwio	r2,0(r2)
    if (~pio_1_data & Pio1ModuleSleep) {
    1018:	10c0008c 	andi	r3,r2,2
    101c:	1800041e 	bne	r3,zero,1030 <_ZN18CentralizedMonitor15ClearErrorFlagsEv+0x74>
        new_error_flags &= ~ErrorCauseModuleSleep;
    1020:	d9000017 	ldw	r4,0(sp)
    1024:	00ffff84 	movi	r3,-2
    1028:	20c6703a 	and	r3,r4,r3
    102c:	d8c00015 	stw	r3,0(sp)
    if (~pio_1_data & Pio1FpgaStop) {
    1030:	1080010c 	andi	r2,r2,4
    1034:	1000051e 	bne	r2,zero,104c <_ZN18CentralizedMonitor15ClearErrorFlagsEv+0x90>
        new_error_flags &= ~ErrorCauseFpgaStop;
    1038:	d8c00017 	ldw	r3,0(sp)
    103c:	00bfff44 	movi	r2,-3
    1040:	1884703a 	and	r2,r3,r2
    1044:	d8800015 	stw	r2,0(sp)
        ResetMotorInterruptFlags();
    1048:	0000ecc0 	call	ecc <_ZN18CentralizedMonitor24ResetMotorInterruptFlagsEv>
    int dc48v_voltage = Adc2::GetDc48v();
    104c:	d0a0178b 	ldhu	r2,-32674(gp)
    if (DC48V_UNDER_VOLTAGE_THRESHOLD <= dc48v_voltage) {
    1050:	10dd4c10 	cmplti	r3,r2,30000
    1054:	1800061e 	bne	r3,zero,1070 <_ZN18CentralizedMonitor15ClearErrorFlagsEv+0xb4>
        new_error_flags &= ~ErrorCauseDc48vUnderVoltage;
    1058:	d9000017 	ldw	r4,0(sp)
    105c:	00fffec4 	movi	r3,-5
    1060:	20c6703a 	and	r3,r4,r3
    1064:	d8c00015 	stw	r3,0(sp)
    if (dc48v_voltage <= DC48V_OVER_VOLTAGE_THRESHOLD) {
    1068:	00f34514 	movui	r3,52500
    106c:	18800416 	blt	r3,r2,1080 <_ZN18CentralizedMonitor15ClearErrorFlagsEv+0xc4>
        new_error_flags &= ~ErrorCauseDc48vOverVoltage;
    1070:	d8c00017 	ldw	r3,0(sp)
    1074:	00bffdc4 	movi	r2,-9
    1078:	1884703a 	and	r2,r3,r2
    107c:	d8800015 	stw	r2,0(sp)
        return VectorControllerStatus(__builtin_ldhuio(&reinterpret_cast<Register_t*>(BASE)->STATUS));
    1080:	00bc0014 	movui	r2,61440
    1084:	10c0002b 	ldhuio	r3,0(r2)
        return MotorControllerStatus(__builtin_ldhuio(&reinterpret_cast<Register_t*>(BASE)->STATUS));
    1088:	00bc4014 	movui	r2,61696
    108c:	1080002b 	ldhuio	r2,0(r2)
        return (Status >> 4) & 0xF;
    1090:	1806d13a 	srli	r3,r3,4
        return Status & 0x1;
    1094:	1080004c 	andi	r2,r2,1
    uint32_t hall_fault_n = vcm_status.HallSensorFaultN() | (mc5_status.HallSensorFaultN() << 4);
    1098:	1004913a 	slli	r2,r2,4
    109c:	18c003cc 	andi	r3,r3,15
    10a0:	10c4b03a 	or	r2,r2,r3
    new_error_flags &= ~(hall_fault_n * ErrorCauseMotor1HallSensor);
    10a4:	1004927a 	slli	r2,r2,9
    10a8:	d8c00017 	ldw	r3,0(sp)
    10ac:	0084303a 	nor	r2,zero,r2
    10b0:	10c4703a 	and	r2,r2,r3
    new_error_flags &= ~(ErrorCauseMotor5OverCurrent | ErrorCauseMotor4OverCurrent | ErrorCauseMotor3OverCurrent | ErrorCauseMotor2OverCurrent | ErrorCauseMotor1OverCurrent);
    10b4:	00ff83c4 	movi	r3,-497
    10b8:	10c4703a 	and	r2,r2,r3
        __builtin_stwio(&_SharedMemory.ErrorFlags, new_error_flags);
    10bc:	00c00074 	movhi	r3,1
    _ErrorFlags = new_error_flags;
    10c0:	d0a01415 	stw	r2,-32688(gp)
    10c4:	18ac0035 	stwio	r2,-20480(r3)
    CriticalSection cs;
    10c8:	d9000e04 	addi	r4,sp,56
    10cc:	0000ab40 	call	ab4 <_ZN15CriticalSectionD1Ev>
    10d0:	d9000104 	addi	r4,sp,4
    10d4:	00041c00 	call	41c0 <_Unwind_SjLj_Unregister>
}
    10d8:	dfc01017 	ldw	ra,64(sp)
    10dc:	df000f17 	ldw	fp,60(sp)
    10e0:	dec01104 	addi	sp,sp,68
    10e4:	f800283a 	ret

000010e8 <_ZN18CentralizedMonitor20DoPeriodicCommonWorkEv>:
void CentralizedMonitor::DoPeriodicCommonWork(void) {
    10e8:	defffe04 	addi	sp,sp,-8
    10ec:	dfc00115 	stw	ra,4(sp)
    10f0:	dc000015 	stw	r16,0(sp)
    PERF_BEGIN(reinterpret_cast<void*>(PERFORMANCE_COUNTER_0_BASE), 1);
    10f4:	00b1c514 	movui	r2,50964
    10f8:	10000035 	stwio	zero,0(r2)
    ++cnt;
    10fc:	d0a01517 	ldw	r2,-32684(gp)
    1100:	10800044 	addi	r2,r2,1
    1104:	d0a01515 	stw	r2,-32684(gp)
    if (cnt == 50) {
    1108:	10c00c98 	cmpnei	r3,r2,50
    110c:	1800211e 	bne	r3,zero,1194 <_ZN18CentralizedMonitor20DoPeriodicCommonWorkEv+0xac>
    static void SetMotor5Enabled(bool enabled) {
        if (enabled == false) {
            IOWR_ALTERA_AVALON_PIO_CLEAR_BITS(PIO_2_BASE, Pio2Motor5Led);
        }
        else {
            IOWR_ALTERA_AVALON_PIO_SET_BITS(PIO_2_BASE, Pio2Motor5Led);
    1110:	00c00404 	movi	r3,16
    1114:	00b88414 	movui	r2,57872
            IOWR_ALTERA_AVALON_PIO_CLEAR_BITS(PIO_2_BASE, Pio2Motor5Led);
    1118:	10c00035 	stwio	r3,0(r2)
    int adc2_timeout = _Adc2Timeout;
    111c:	d0a00017 	ldw	r2,-32768(gp)
    if (0 <= --adc2_timeout) {
    1120:	10bfffc4 	addi	r2,r2,-1
    1124:	10002116 	blt	r2,zero,11ac <_ZN18CentralizedMonitor20DoPeriodicCommonWorkEv+0xc4>
        _Adc2Timeout = adc2_timeout;
    1128:	d0a00015 	stw	r2,-32768(gp)
    /**
     * 
     * @return true
     */
    static bool IsAnyProblemOccured(void){
        return (_ErrorFlags != 0) || (_FaultFlags != 0);
    112c:	d0a01417 	ldw	r2,-32688(gp)
    1130:	1000211e 	bne	r2,zero,11b8 <_ZN18CentralizedMonitor20DoPeriodicCommonWorkEv+0xd0>
    1134:	d0a01317 	ldw	r2,-32692(gp)
    1138:	10001f1e 	bne	r2,zero,11b8 <_ZN18CentralizedMonitor20DoPeriodicCommonWorkEv+0xd0>
        bool new_parameters = SharedMemory::UpdateParameters();
    113c:	0001dc00 	call	1dc0 <_ZN12SharedMemory16UpdateParametersEv>
        WheelController::Update(new_parameters);
    1140:	14003fcc 	andi	r16,r2,255
    1144:	8009883a 	mov	r4,r16
    1148:	00021280 	call	2128 <_ZN15WheelController6UpdateEb>
        DribbleController::Update(new_parameters);
    114c:	8009883a 	mov	r4,r16
    1150:	00012540 	call	1254 <_ZN17DribbleController6UpdateEb>
    PERF_END(reinterpret_cast<void*>(PERFORMANCE_COUNTER_0_BASE), 1);
    1154:	00b1c414 	movui	r2,50960
    1158:	10000035 	stwio	zero,0(r2)
    uint64_t counter_64 = perf_get_section_time(reinterpret_cast<void*>(PERFORMANCE_COUNTER_0_BASE), 1);
    115c:	01400044 	movi	r5,1
    1160:	0131c014 	movui	r4,50944
    1164:	000562c0 	call	562c <perf_get_section_time>
    1168:	1021883a 	mov	r16,r2
    int counter = (counter_64 & 0xFFFFFFFFFFFF0000ULL) ? 65535 : static_cast<int>(counter_64);
    116c:	10bfffec 	andhi	r2,r2,65535
    1170:	10c4b03a 	or	r2,r2,r3
    1174:	10000126 	beq	r2,zero,117c <_ZN18CentralizedMonitor20DoPeriodicCommonWorkEv+0x94>
    1178:	043fffd4 	movui	r16,65535
    StreamTransmitter::TransmitStatus();
    117c:	0001ea40 	call	1ea4 <_ZN17StreamTransmitter14TransmitStatusEv>
    StreamTransmitter::TransmitMotion(counter);
    1180:	8009883a 	mov	r4,r16
}
    1184:	dfc00117 	ldw	ra,4(sp)
    1188:	dc000017 	ldw	r16,0(sp)
    118c:	dec00204 	addi	sp,sp,8
    StreamTransmitter::TransmitMotion(counter);
    1190:	0001ee41 	jmpi	1ee4 <_ZN17StreamTransmitter14TransmitMotionEi>
    else if (100 <= cnt) {
    1194:	10801910 	cmplti	r2,r2,100
    1198:	103fe01e 	bne	r2,zero,111c <_ZN18CentralizedMonitor20DoPeriodicCommonWorkEv+0x34>
        cnt = 0;
    119c:	d0201515 	stw	zero,-32684(gp)
    11a0:	00c00404 	movi	r3,16
    11a4:	00b88514 	movui	r2,57876
    11a8:	003fdb06 	br	1118 <_ZN18CentralizedMonitor20DoPeriodicCommonWorkEv+0x30>
        SetFaultFlags(FaultCauseAdc2Timeout);
    11ac:	01000044 	movi	r4,1
    11b0:	0000c640 	call	c64 <_ZN18CentralizedMonitor13SetFaultFlagsEm>
    11b4:	003fdd06 	br	112c <_ZN18CentralizedMonitor20DoPeriodicCommonWorkEv+0x44>
        SharedMemory::ClearParameters();
    11b8:	0001e640 	call	1e64 <_ZN12SharedMemory15ClearParametersEv>
        return (static_cast<uint32_t>(__builtin_ldwio(&_SharedMemory.ErrorFlags)) == 0xFFFFFFFFUL);
    11bc:	00800074 	movhi	r2,1
    11c0:	10ac0037 	ldwio	r2,-20480(r2)
        if (SharedMemory::IsRequestedClearingErrorFlags() == true) {
    11c4:	10bfffd8 	cmpnei	r2,r2,-1
    11c8:	103fe21e 	bne	r2,zero,1154 <_ZN18CentralizedMonitor20DoPeriodicCommonWorkEv+0x6c>
            ClearErrorFlags();
    11cc:	0000fbc0 	call	fbc <_ZN18CentralizedMonitor15ClearErrorFlagsEv>
    11d0:	003fe006 	br	1154 <_ZN18CentralizedMonitor20DoPeriodicCommonWorkEv+0x6c>

000011d4 <_ZN18CentralizedMonitor12TimerHandlerEPv>:
void CentralizedMonitor::TimerHandler(void *context) {
    11d4:	deffff04 	addi	sp,sp,-4
    11d8:	dfc00015 	stw	ra,0(sp)
    IOWR_ALTERA_AVALON_TIMER_STATUS(TIMER_0_BASE, 0);
    11dc:	00b20014 	movui	r2,51200
    11e0:	10000035 	stwio	zero,0(r2)
    SetFaultFlags(FaultCauseImuTimeout);
    11e4:	01000084 	movi	r4,2
    11e8:	0000c640 	call	c64 <_ZN18CentralizedMonitor13SetFaultFlagsEm>
    IOWR_ALTERA_AVALON_PIO_IRQ_MASK(PIO_0_BASE, 0);
    11ec:	00b80214 	movui	r2,57352
    11f0:	10000035 	stwio	zero,0(r2)
}
    11f4:	dfc00017 	ldw	ra,0(sp)
    11f8:	dec00104 	addi	sp,sp,4
    DoPeriodicCommonWork();
    11fc:	00010e81 	jmpi	10e8 <_ZN18CentralizedMonitor20DoPeriodicCommonWorkEv>

00001200 <_ZN18CentralizedMonitor11Pio0HandlerEPv>:
    IOWR_ALTERA_AVALON_PIO_EDGE_CAP(PIO_0_BASE, 0);
    1200:	00b80314 	movui	r2,57356
    1204:	10000035 	stwio	zero,0(r2)
    IOWR_ALTERA_AVALON_TIMER_PERIOD_0(TIMER_0_BASE, 0);
    1208:	00b20214 	movui	r2,51208
    120c:	10000035 	stwio	zero,0(r2)
    IOWR_ALTERA_AVALON_TIMER_CONTROL(TIMER_0_BASE, ALTERA_AVALON_TIMER_CONTROL_ITO_MSK | ALTERA_AVALON_TIMER_CONTROL_CONT_MSK | ALTERA_AVALON_TIMER_CONTROL_START_MSK);
    1210:	00c001c4 	movi	r3,7
    1214:	00b20114 	movui	r2,51204
    1218:	10c00035 	stwio	r3,0(r2)
    DoPeriodicCommonWork();
    121c:	00010e81 	jmpi	10e8 <_ZN18CentralizedMonitor20DoPeriodicCommonWorkEv>

00001220 <_ZN17DribbleController12StartControlEv>:
    static bool IsFault(void) {
        return __builtin_ldhuio(&reinterpret_cast<Register_t*>(BASE)->FAULT) != 0;
    }

    static int GetPower(void) {
        return __builtin_ldhio(&reinterpret_cast<Register_t*>(BASE)->POWER);
    1220:	00bc4194 	movui	r2,61702
    1224:	1000002d 	sthio	zero,0(r2)
        __builtin_sthio(&reinterpret_cast<Register_t*>(BASE)->FAULT, 0x2);
    1228:	00c00084 	movi	r3,2
    122c:	00bc4114 	movui	r2,61700
    1230:	10c0002d 	sthio	r3,0(r2)
#include <math.h>

void DribbleController::StartControl(void) {
    MotorController::SetPower(0);
    MotorController::ClearFault();
}
    1234:	f800283a 	ret

00001238 <_ZN17DribbleController11StopControlEv>:
        __builtin_sthio(&reinterpret_cast<Register_t*>(BASE)->FAULT, 0x1);
    1238:	00c00044 	movi	r3,1
    123c:	00bc4114 	movui	r2,61700
    1240:	10c0002d 	sthio	r3,0(r2)
        return __builtin_ldhio(&reinterpret_cast<Register_t*>(BASE)->POWER);
    1244:	00bc4194 	movui	r2,61702
    1248:	1000002d 	sthio	zero,0(r2)

void DribbleController::StopControl(void) {
    MotorController::SetFault();
    MotorController::SetPower(0);
}
    124c:	f800283a 	ret

00001250 <_ZN17DribbleController17Adc2UpdateCurrentEi>:

void DribbleController::Adc2UpdateCurrent(int dribble_current) {
    /*if (OVER_CURRENT_THRESHOLD < dribble_current) {
        CentralizedMonitor::SetErrorFlags(ErrorCauseMotor5OverCurrent);
    }*/
}
    1250:	f800283a 	ret

00001254 <_ZN17DribbleController6UpdateEb>:

void DribbleController::Update(bool new_parameters) {
    1254:	defffc04 	addi	sp,sp,-16
    float dribble_power = SharedMemory::GetParameters().dribble_power;
    1258:	00800074 	movhi	r2,1
void DribbleController::Update(bool new_parameters) {
    125c:	dc400115 	stw	r17,4(sp)
    float dribble_power = SharedMemory::GetParameters().dribble_power;
    1260:	1460c217 	ldw	r17,-31992(r2)
        __builtin_sthio(&reinterpret_cast<Register_t*>(BASE)->FAULT, 0x3);
    1264:	00bc4114 	movui	r2,61700
void DribbleController::Update(bool new_parameters) {
    1268:	dfc00315 	stw	ra,12(sp)
    126c:	dc800215 	stw	r18,8(sp)
    1270:	dc000015 	stw	r16,0(sp)
    1274:	1080002b 	ldhuio	r2,0(r2)
    1278:	10bfffcc 	andi	r2,r2,65535
    if (MotorController::IsFault() == false) {
    127c:	1000291e 	bne	r2,zero,1324 <_ZN17DribbleController6UpdateEb+0xd0>
        if (fabsf(dribble_power) <= 1.0f) {
    1280:	8809f832 	custom	224,r4,r17,zero
    1284:	00cfe034 	movhi	r3,16256
    1288:	20c5f9b2 	custom	230,r2,r4,r3
    128c:	10001f26 	beq	r2,zero,130c <_ZN17DribbleController6UpdateEb+0xb8>
        return __builtin_ldhuio(&reinterpret_cast<Register_t*>(BASE)->FAULT) != 0;
    1290:	00bc4194 	movui	r2,61702
    1294:	1400002f 	ldhio	r16,0(r2)
            int previous_power = MotorController::GetPower();
            float upper_limit = fminf(previous_power + SLEWRATE_LIMIT, MAXIMUM_POWER);
    1298:	01514ef4 	movhi	r5,17723
    129c:	81000d84 	addi	r4,r16,54
    12a0:	29640004 	addi	r5,r5,-28672
    12a4:	2009feb2 	custom	250,r4,r4,zero
    12a8:	0003d740 	call	3d74 <fminf>
            float lower_limit = fmaxf(previous_power - SLEWRATE_LIMIT, -MAXIMUM_POWER);
    12ac:	813ff284 	addi	r4,r16,-54
    12b0:	01714ef4 	movhi	r5,50491
    12b4:	29640004 	addi	r5,r5,-28672
    12b8:	2009feb2 	custom	250,r4,r4,zero
            float upper_limit = fminf(previous_power + SLEWRATE_LIMIT, MAXIMUM_POWER);
    12bc:	1025883a 	mov	r18,r2
            float lower_limit = fmaxf(previous_power - SLEWRATE_LIMIT, -MAXIMUM_POWER);
    12c0:	0003d180 	call	3d18 <fmaxf>
            float power = fmaxf(lower_limit, fminf(dribble_power * POWER_SCALE, upper_limit));
    12c4:	01114f34 	movhi	r4,17724
    12c8:	21200004 	addi	r4,r4,-32768
    12cc:	900b883a 	mov	r5,r18
    12d0:	8909ff32 	custom	252,r4,r17,r4
            float lower_limit = fmaxf(previous_power - SLEWRATE_LIMIT, -MAXIMUM_POWER);
    12d4:	1021883a 	mov	r16,r2
            float power = fmaxf(lower_limit, fminf(dribble_power * POWER_SCALE, upper_limit));
    12d8:	0003d740 	call	3d74 <fminf>
    12dc:	100b883a 	mov	r5,r2
    12e0:	8009883a 	mov	r4,r16
    12e4:	0003d180 	call	3d18 <fmaxf>
            MotorController::SetPower(static_cast<int>(power));
    12e8:	1005fe72 	custom	249,r2,r2,zero
        return __builtin_ldhio(&reinterpret_cast<Register_t*>(BASE)->POWER);
    12ec:	00fc4194 	movui	r3,61702
    12f0:	1880002d 	sthio	r2,0(r3)
        }
    }
    else if (new_parameters == true) {
        StartControl();
    }
}
    12f4:	dfc00317 	ldw	ra,12(sp)
    12f8:	dc800217 	ldw	r18,8(sp)
    12fc:	dc400117 	ldw	r17,4(sp)
    1300:	dc000017 	ldw	r16,0(sp)
    1304:	dec00404 	addi	sp,sp,16
    1308:	f800283a 	ret
    130c:	dfc00317 	ldw	ra,12(sp)
    1310:	dc800217 	ldw	r18,8(sp)
    1314:	dc400117 	ldw	r17,4(sp)
    1318:	dc000017 	ldw	r16,0(sp)
    131c:	dec00404 	addi	sp,sp,16
            StopControl();
    1320:	00012381 	jmpi	1238 <_ZN17DribbleController11StopControlEv>
    else if (new_parameters == true) {
    1324:	21003fcc 	andi	r4,r4,255
    1328:	203ff226 	beq	r4,zero,12f4 <_ZN17DribbleController6UpdateEb+0xa0>
}
    132c:	dfc00317 	ldw	ra,12(sp)
    1330:	dc800217 	ldw	r18,8(sp)
    1334:	dc400117 	ldw	r17,4(sp)
    1338:	dc000017 	ldw	r16,0(sp)
    133c:	dec00404 	addi	sp,sp,16
        StartControl();
    1340:	00012201 	jmpi	1220 <_ZN17DribbleController12StartControlEv>

00001344 <_ZN4Adc213AwaitCompleteEv>:
    if (busy) *busy = (status & 0x1) ? true : false;
    if (acked) *acked = (status & 0x2) ? true : false;
}

static inline bool I2CM_IsBusy(uint32_t base) {
    int intflag = __builtin_ldhuio(&((I2CMasterRegisters*)base)->STATUS);
    1344:	00b90094 	movui	r2,58370
    1348:	1080002b 	ldhuio	r2,0(r2)
        I2CM_BusReset(I2C_BASE);
    }

    // 
    static void AwaitComplete(void) {
        while (I2CM_IsBusy(I2C_BASE)) {
    134c:	1080004c 	andi	r2,r2,1
    1350:	103ffc1e 	bne	r2,zero,1344 <_ZN4Adc213AwaitCompleteEv>
        }
    }
    1354:	f800283a 	ret

00001358 <_ZN4Adc220StartConversionAsyncEi>:
    // 
    StartConversionAsync(0);
}

void Adc2::StartConversionAsync(int sequence) {
    if ((uint32_t)NUMBER_OF_SEQUENCE <= (uint32_t)sequence) {
    1358:	208000b0 	cmpltui	r2,r4,2
    135c:	1000011e 	bne	r2,zero,1364 <_ZN4Adc220StartConversionAsyncEi+0xc>
        sequence = 0;
    1360:	0009883a 	mov	r4,zero
    }
    _State = STATE_WriteConfig;
    1364:	d0201a15 	stw	zero,-32664(gp)
    _Sequence = sequence;
    1368:	d1201915 	stw	r4,-32668(gp)
    __builtin_sthio(&((I2CMasterRegisters*)base)->TXDATA, data);
    __builtin_sthio(&((I2CMasterRegisters*)base)->CONTROL, 0x0042);
}

static inline void I2CM_WriteRegister2Byte(uint32_t base, int address, int data) {
    __builtin_sthio(&((I2CMasterRegisters*)base)->IADDR, address);
    136c:	00c00044 	movi	r3,1
    1370:	00b90214 	movui	r2,58376
    if (sequence == 0) {
    1374:	2000081e 	bne	r4,zero,1398 <_ZN4Adc220StartConversionAsyncEi+0x40>
    1378:	10c0002d 	sthio	r3,0(r2)
    __builtin_sthio(&((I2CMasterRegisters*)base)->TXDATA, data);
    137c:	00c0ecc4 	movi	r3,947
    1380:	00b90294 	movui	r2,58378
    1384:	10c0002d 	sthio	r3,0(r2)
    __builtin_sthio(&((I2CMasterRegisters*)base)->CONTROL, 0x0142);
    1388:	00c05084 	movi	r3,322
    138c:	00b90014 	movui	r2,58368
    1390:	10c0002d 	sthio	r3,0(r2)
    }
    else {
        // 
        ConvertAsync(MUX_AIN1_to_AIN0, FSR_256mV);
    }
}
    1394:	f800283a 	ret
    __builtin_sthio(&((I2CMasterRegisters*)base)->IADDR, address);
    1398:	10c0002d 	sthio	r3,0(r2)
    __builtin_sthio(&((I2CMasterRegisters*)base)->TXDATA, data);
    139c:	00c0e2c4 	movi	r3,907
    13a0:	003ff706 	br	1380 <_ZN4Adc220StartConversionAsyncEi+0x28>

000013a4 <_ZN4Adc25StartEv>:
void Adc2::Start(void) {
    13a4:	defffe04 	addi	sp,sp,-8
    13a8:	dfc00115 	stw	ra,4(sp)
    __builtin_sthio(&((I2CMasterRegisters*)base)->INTFLAG, 0);
    13ac:	00b90114 	movui	r2,58372
    13b0:	1000002d 	sthio	zero,0(r2)
    alt_ic_isr_register(I2C_IC_ID, I2C_IRQ, Handler, nullptr, nullptr);
    13b4:	01800034 	movhi	r6,0
    13b8:	d8000015 	stw	zero,0(sp)
    13bc:	000f883a 	mov	r7,zero
    13c0:	3184f804 	addi	r6,r6,5088
    13c4:	01400144 	movi	r5,5
    13c8:	0009883a 	mov	r4,zero
    13cc:	0005a700 	call	5a70 <alt_ic_isr_register>
    StartConversionAsync(0);
    13d0:	0009883a 	mov	r4,zero
}
    13d4:	dfc00117 	ldw	ra,4(sp)
    13d8:	dec00204 	addi	sp,sp,8
    StartConversionAsync(0);
    13dc:	00013581 	jmpi	1358 <_ZN4Adc220StartConversionAsyncEi>

000013e0 <_ZN4Adc27HandlerEPv>:
    I2CM_WriteRegister2Byte(I2C_BASE, address, txdata);
    AwaitComplete();
    return I2CM_IsAcked(I2C_BASE);
}

void Adc2::Handler(void *context) {
    13e0:	deffff04 	addi	sp,sp,-4
    13e4:	dfc00015 	stw	ra,0(sp)
    13e8:	00b90114 	movui	r2,58372
    13ec:	1000002d 	sthio	zero,0(r2)
    int intflag = __builtin_ldhuio(&((I2CMasterRegisters*)base)->STATUS);
    13f0:	00b90094 	movui	r2,58370
    13f4:	1080002b 	ldhuio	r2,0(r2)
    return (intflag & 0x2) ? true : false;
    13f8:	1004d07a 	srli	r2,r2,1
    I2CM_ClearComplete(I2C_BASE);
    if (I2CM_IsAcked(I2C_BASE) == false) {
    13fc:	1080004c 	andi	r2,r2,1
    1400:	10000b1e 	bne	r2,zero,1430 <_ZN4Adc27HandlerEPv+0x50>
    error:
    for (uint32_t i = 0; i < NUMBER_OF_SEQUENCE; i++) {
        _Result[i] = 0;
    }
    _Valid = false;
    _State = STATE_BusReset;
    1404:	008000c4 	movi	r2,3
        _Result[i] = 0;
    1408:	d020178d 	sth	zero,-32674(gp)
    140c:	d020180d 	sth	zero,-32672(gp)
    _Valid = false;
    1410:	d0201705 	stb	zero,-32676(gp)
    _State = STATE_BusReset;
    1414:	d0a01a15 	stw	r2,-32664(gp)
    __builtin_sthio(&((I2CMasterRegisters*)base)->CONTROL, 0x0001);
    1418:	00c00044 	movi	r3,1
    __builtin_sthio(&((I2CMasterRegisters*)base)->CONTROL, 0x0046);
}

static inline void I2CM_ReadRegister2Byte(uint32_t base, int address) {
    __builtin_sthio(&((I2CMasterRegisters*)base)->IADDR, address);
    __builtin_sthio(&((I2CMasterRegisters*)base)->CONTROL, 0x0146);
    141c:	00b90014 	movui	r2,58368
    1420:	10c0002d 	sthio	r3,0(r2)
    StartBusResetAsync();
}
    1424:	dfc00017 	ldw	ra,0(sp)
    1428:	dec00104 	addi	sp,sp,4
    142c:	f800283a 	ret
    switch (_State) {
    1430:	d0a01a17 	ldw	r2,-32664(gp)
    1434:	10c000a0 	cmpeqi	r3,r2,2
    1438:	18001e1e 	bne	r3,zero,14b4 <_ZN4Adc27HandlerEPv+0xd4>
    143c:	10c000e8 	cmpgeui	r3,r2,3
    1440:	1800071e 	bne	r3,zero,1460 <_ZN4Adc27HandlerEPv+0x80>
    1444:	10000b1e 	bne	r2,zero,1474 <_ZN4Adc27HandlerEPv+0x94>
        _State = STATE_PollConfig;
    1448:	00800044 	movi	r2,1
    144c:	d0a01a15 	stw	r2,-32664(gp)
    __builtin_sthio(&((I2CMasterRegisters*)base)->IADDR, address);
    1450:	00c00044 	movi	r3,1
    1454:	00b90214 	movui	r2,58376
    1458:	10c0002d 	sthio	r3,0(r2)
    145c:	00001306 	br	14ac <_ZN4Adc27HandlerEPv+0xcc>
    switch (_State) {
    1460:	108000e0 	cmpeqi	r2,r2,3
    1464:	103fe726 	beq	r2,zero,1404 <_ZN4Adc27HandlerEPv+0x24>
        StartConversionAsync(0);
    1468:	0009883a 	mov	r4,zero
    146c:	00013580 	call	1358 <_ZN4Adc220StartConversionAsyncEi>
    1470:	003fe406 	br	1404 <_ZN4Adc27HandlerEPv+0x24>
static inline int I2CM_GetReadResult1Byte(uint32_t base) {
    return __builtin_ldbuio(&((I2CMasterRegisters*)base)->RXDATA);
}

static inline int I2CM_GetReadResult2Byte(uint32_t base) {
    return __builtin_ldhuio(&((I2CMasterRegisters*)base)->RXDATA);
    1474:	00b90314 	movui	r2,58380
    1478:	1080002b 	ldhuio	r2,0(r2)
        if (config & 0x8000) {
    147c:	1006923a 	slli	r3,r2,8
    1480:	10bfffcc 	andi	r2,r2,65535
    1484:	1004d23a 	srli	r2,r2,8
    1488:	1884b03a 	or	r2,r3,r2
    148c:	10bfffcc 	andi	r2,r2,65535
    1490:	10a0001c 	xori	r2,r2,32768
    1494:	10a00004 	addi	r2,r2,-32768
    1498:	103fed0e 	bge	r2,zero,1450 <_ZN4Adc27HandlerEPv+0x70>
            _State = STATE_ReadResult;
    149c:	00800084 	movi	r2,2
    14a0:	d0a01a15 	stw	r2,-32664(gp)
    __builtin_sthio(&((I2CMasterRegisters*)base)->IADDR, address);
    14a4:	00b90214 	movui	r2,58376
    14a8:	1000002d 	sthio	zero,0(r2)
    __builtin_sthio(&((I2CMasterRegisters*)base)->CONTROL, 0x0146);
    14ac:	00c05184 	movi	r3,326
    14b0:	003fda06 	br	141c <_ZN4Adc27HandlerEPv+0x3c>
    return __builtin_ldhuio(&((I2CMasterRegisters*)base)->RXDATA);
    14b4:	00b90314 	movui	r2,58380
    14b8:	1080002b 	ldhuio	r2,0(r2)
            float value = static_cast<int>(result) * (1.0f / 32768.0f * 4.096f * 21.0f * 1000.0f); //  42mV;
    14bc:	1008923a 	slli	r4,r2,8
    14c0:	10bfffcc 	andi	r2,r2,65535
    14c4:	1004d23a 	srli	r2,r2,8
    14c8:	2088b03a 	or	r4,r4,r2
        if (_Sequence == 0) {
    14cc:	d0a01917 	ldw	r2,-32668(gp)
            float value = static_cast<int>(result) * (1.0f / 32768.0f * 4.096f * 21.0f * 1000.0f); //  42mV;
    14d0:	213fffcc 	andi	r4,r4,65535
    14d4:	2009feb2 	custom	250,r4,r4,zero
        if (_Sequence == 0) {
    14d8:	1000141e 	bne	r2,zero,152c <_ZN4Adc27HandlerEPv+0x14c>
            float value = static_cast<int>(result) * (1.0f / 32768.0f * 4.096f * 21.0f * 1000.0f); //  42mV;
    14dc:	00900a34 	movhi	r2,16424
    14e0:	10800044 	addi	r2,r2,1
    14e4:	2089ff32 	custom	252,r4,r4,r2
            _Result[0] = static_cast<int>(fmaxf(0.0f, fminf(value, 65535.0f)));
    14e8:	0091e034 	movhi	r2,18304
    14ec:	10bfc004 	addi	r2,r2,-256
    14f0:	2089fa72 	custom	233,r4,r4,r2
    14f4:	0005883a 	mov	r2,zero
    14f8:	1109fa32 	custom	232,r4,r2,r4
    14fc:	2009fe72 	custom	249,r4,r4,zero
    1500:	d120178d 	sth	r4,-32674(gp)
            CentralizedMonitor::Adc2KeepAlive(_Result[0]);
    1504:	213fffcc 	andi	r4,r4,65535
    1508:	0000bf00 	call	bf0 <_ZN18CentralizedMonitor13Adc2KeepAliveEi>
            StreamTransmitter::TransmitAdc2();
    150c:	0001ec40 	call	1ec4 <_ZN17StreamTransmitter12TransmitAdc2Ev>
        StartConversionAsync(_Sequence + 1);
    1510:	d1201917 	ldw	r4,-32668(gp)
        _Valid = true;
    1514:	00800044 	movi	r2,1
    1518:	d0a01705 	stb	r2,-32676(gp)
        StartConversionAsync(_Sequence + 1);
    151c:	21000044 	addi	r4,r4,1
}
    1520:	dfc00017 	ldw	ra,0(sp)
    1524:	dec00104 	addi	sp,sp,4
        StartConversionAsync(_Sequence + 1);
    1528:	00013581 	jmpi	1358 <_ZN4Adc220StartConversionAsyncEi>
            float value = static_cast<int>(result) * (1.0f / 32768.0f * 0.256f / 0.01f * 1000.0f); //  12.5mA
    152c:	008fd234 	movhi	r2,16200
    1530:	10800044 	addi	r2,r2,1
    1534:	2089ff32 	custom	252,r4,r4,r2
            _Result[1] = static_cast<int>(fmaxf(0.0f, fminf(value, 65535.0f)));
    1538:	0091e034 	movhi	r2,18304
    153c:	10bfc004 	addi	r2,r2,-256
    1540:	2089fa72 	custom	233,r4,r4,r2
    1544:	0005883a 	mov	r2,zero
    1548:	1109fa32 	custom	232,r4,r2,r4
    154c:	2009fe72 	custom	249,r4,r4,zero
    1550:	d120180d 	sth	r4,-32672(gp)
            DribbleController::Adc2UpdateCurrent(_Result[1]);
    1554:	213fffcc 	andi	r4,r4,65535
    1558:	00012500 	call	1250 <_ZN17DribbleController17Adc2UpdateCurrentEi>
    155c:	003fec06 	br	1510 <_ZN4Adc27HandlerEPv+0x130>

00001560 <_ZN4Adc212ReadRegisterEiPt>:
bool Adc2::ReadRegister(int address, uint16_t *value) {
    1560:	defffe04 	addi	sp,sp,-8
    1564:	dc000015 	stw	r16,0(sp)
    1568:	dfc00115 	stw	ra,4(sp)
    156c:	2821883a 	mov	r16,r5
    __builtin_sthio(&((I2CMasterRegisters*)base)->IADDR, address);
    1570:	00b90214 	movui	r2,58376
    1574:	1100002d 	sthio	r4,0(r2)
    __builtin_sthio(&((I2CMasterRegisters*)base)->CONTROL, 0x0146);
    1578:	00c05184 	movi	r3,326
    157c:	00b90014 	movui	r2,58368
    1580:	10c0002d 	sthio	r3,0(r2)
    AwaitComplete();
    1584:	00013440 	call	1344 <_ZN4Adc213AwaitCompleteEv>
    int intflag = __builtin_ldhuio(&((I2CMasterRegisters*)base)->STATUS);
    1588:	00b90094 	movui	r2,58370
    158c:	10c0002b 	ldhuio	r3,0(r2)
    return (intflag & 0x2) ? true : false;
    1590:	1806d07a 	srli	r3,r3,1
    1594:	1880004c 	andi	r2,r3,1
    if (I2CM_IsAcked(I2C_BASE)) {
    1598:	10000726 	beq	r2,zero,15b8 <_ZN4Adc212ReadRegisterEiPt+0x58>
    return __builtin_ldhuio(&((I2CMasterRegisters*)base)->RXDATA);
    159c:	00f90314 	movui	r3,58380
    15a0:	18c0002b 	ldhuio	r3,0(r3)
        *value = (rxdata << 8) | (rxdata >> 8);
    15a4:	1808923a 	slli	r4,r3,8
    15a8:	18ffffcc 	andi	r3,r3,65535
    15ac:	1806d23a 	srli	r3,r3,8
    15b0:	20c6b03a 	or	r3,r4,r3
    15b4:	80c0000d 	sth	r3,0(r16)
}
    15b8:	dfc00117 	ldw	ra,4(sp)
    15bc:	dc000017 	ldw	r16,0(sp)
    15c0:	dec00204 	addi	sp,sp,8
    15c4:	f800283a 	ret

000015c8 <_ZN4Adc210InitializeEv>:
bool Adc2::Initialize(void) {
    15c8:	defffe04 	addi	sp,sp,-8
    15cc:	dfc00115 	stw	ra,4(sp)
    __builtin_sthio(&((I2CMasterRegisters*)base)->CONTROL, 0x0001);
    15d0:	00c00044 	movi	r3,1
    15d4:	00b90014 	movui	r2,58368
    15d8:	10c0002d 	sthio	r3,0(r2)
    AwaitComplete();
    15dc:	00013440 	call	1344 <_ZN4Adc213AwaitCompleteEv>
    __builtin_sthio(&((I2CMasterRegisters*)base)->DADDR, address);
    15e0:	00c01204 	movi	r3,72
    15e4:	00b90194 	movui	r2,58374
    15e8:	10c0002d 	sthio	r3,0(r2)
    if (ReadRegister(ADS1015_CONFIGURATION, &config) == false) {
    15ec:	d9400084 	addi	r5,sp,2
    15f0:	01000044 	movi	r4,1
    15f4:	00015600 	call	1560 <_ZN4Adc212ReadRegisterEiPt>
}
    15f8:	dfc00117 	ldw	ra,4(sp)
    15fc:	dec00204 	addi	sp,sp,8
    1600:	f800283a 	ret

00001604 <_ZN3Imu8ReadDataEP11ImuResult_t>:
static inline void IMU_SPIM_SetPassthrough(uint32_t base, bool enabled) {
    __builtin_sthio(&((ImuSpiMasterRegisters*)base)->CONTROL, enabled ? 0x0001 : 0x0000);
}

static inline int IMU_SPIM_GetTempData(uint32_t base) {
    return __builtin_ldhio(&((ImuSpiMasterRegisters*)base)->TEMP_DATA);
    1604:	00b98094 	movui	r2,58882
    1608:	1080002f 	ldhio	r2,0(r2)

    return true;
}

void Imu::ReadData(ImuResult_t *data) {
    data->TempData = IMU_SPIM_GetTempData(IMU_SPIM_BASE);
    160c:	2080000d 	sth	r2,0(r4)
}

static inline int IMU_SPIM_GetAccelDataX(uint32_t base) {
    return __builtin_ldhio(&((ImuSpiMasterRegisters*)base)->ACCEL_DATA_X);
    1610:	00b98114 	movui	r2,58884
    1614:	1080002f 	ldhio	r2,0(r2)
    data->AccelDataX = IMU_SPIM_GetAccelDataX(IMU_SPIM_BASE);
    1618:	2080008d 	sth	r2,2(r4)
}

static inline int IMU_SPIM_GetAccelDataY(uint32_t base) {
    return __builtin_ldhio(&((ImuSpiMasterRegisters*)base)->ACCEL_DATA_Y);
    161c:	00b98194 	movui	r2,58886
    1620:	1080002f 	ldhio	r2,0(r2)
    data->AccelDataY = IMU_SPIM_GetAccelDataY(IMU_SPIM_BASE);
    1624:	2080010d 	sth	r2,4(r4)
}

static inline int IMU_SPIM_GetAccelDataZ(uint32_t base) {
    return __builtin_ldhio(&((ImuSpiMasterRegisters*)base)->ACCEL_DATA_Z);
    1628:	00b98214 	movui	r2,58888
    162c:	1080002f 	ldhio	r2,0(r2)
    data->AccelDataZ = IMU_SPIM_GetAccelDataZ(IMU_SPIM_BASE);
    1630:	2080018d 	sth	r2,6(r4)
}

static inline int IMU_SPIM_GetGyroDataX(uint32_t base) {
    return __builtin_ldhio(&((ImuSpiMasterRegisters*)base)->GYRO_DATA_X);
    1634:	00b98294 	movui	r2,58890
    1638:	1080002f 	ldhio	r2,0(r2)
    data->GyroDataX = IMU_SPIM_GetGyroDataX(IMU_SPIM_BASE);
    163c:	2080020d 	sth	r2,8(r4)
}

static inline int IMU_SPIM_GetGyroDataY(uint32_t base) {
    return __builtin_ldhio(&((ImuSpiMasterRegisters*)base)->GYRO_DATA_Y);
    1640:	00b98314 	movui	r2,58892
    1644:	1080002f 	ldhio	r2,0(r2)
    data->GyroDataY = IMU_SPIM_GetGyroDataY(IMU_SPIM_BASE);
    1648:	2080028d 	sth	r2,10(r4)
}

static inline int IMU_SPIM_GetGyroDataZ(uint32_t base) {
    return __builtin_ldhio(&((ImuSpiMasterRegisters*)base)->GYRO_DATA_Z);
    164c:	00b98394 	movui	r2,58894
    1650:	1080002f 	ldhio	r2,0(r2)
    data->GyroDataZ = IMU_SPIM_GetGyroDataZ(IMU_SPIM_BASE);
    1654:	2080030d 	sth	r2,12(r4)
    //ReadRegisters(ICM42688_BANK0_TEMP_DATA1, sizeof(ImuResult_t), data);
}
    1658:	f800283a 	ret

0000165c <_ZN3Imu7SetBankEm>:

void Imu::SetBank(uint32_t bank) {
    if (bank != _Bank) {
    165c:	d0a01b43 	ldbu	r2,-32659(gp)
    1660:	11001126 	beq	r2,r4,16a8 <_ZN3Imu7SetBankEm+0x4c>
void Imu::SetBank(uint32_t bank) {
    1664:	defffb04 	addi	sp,sp,-20
        _Bank = bank;
        uint8_t buffer[2];
        buffer[0] = ICM42688_REG_BANK_SEL;
        buffer[1] = bank;
    1668:	d90003c5 	stb	r4,15(sp)
        _Bank = bank;
    166c:	d1201b45 	stb	r4,-32659(gp)
        buffer[0] = ICM42688_REG_BANK_SEL;
    1670:	00801d84 	movi	r2,118
        alt_avalon_spi_command(SPI_BASE, SPI_SLAVE, sizeof(buffer), buffer, 0, nullptr, 0);
    1674:	d8000215 	stw	zero,8(sp)
    1678:	d8000115 	stw	zero,4(sp)
    167c:	d8000015 	stw	zero,0(sp)
    1680:	d9c00384 	addi	r7,sp,14
    1684:	01800084 	movi	r6,2
    1688:	000b883a 	mov	r5,zero
    168c:	01394014 	movui	r4,58624
void Imu::SetBank(uint32_t bank) {
    1690:	dfc00415 	stw	ra,16(sp)
        buffer[0] = ICM42688_REG_BANK_SEL;
    1694:	d8800385 	stb	r2,14(sp)
        alt_avalon_spi_command(SPI_BASE, SPI_SLAVE, sizeof(buffer), buffer, 0, nullptr, 0);
    1698:	00056500 	call	5650 <alt_avalon_spi_command>
    }
}
    169c:	dfc00417 	ldw	ra,16(sp)
    16a0:	dec00504 	addi	sp,sp,20
    16a4:	f800283a 	ret
    16a8:	f800283a 	ret

000016ac <_ZN3Imu12ReadRegisterEm>:

uint8_t Imu::ReadRegister(uint32_t address) {
    16ac:	defffa04 	addi	sp,sp,-24
    16b0:	dc000415 	stw	r16,16(sp)
    16b4:	2021883a 	mov	r16,r4
    SetBank((address >> 8) & 0x7);
    16b8:	2008d23a 	srli	r4,r4,8
uint8_t Imu::ReadRegister(uint32_t address) {
    16bc:	dfc00515 	stw	ra,20(sp)
    SetBank((address >> 8) & 0x7);
    16c0:	210001cc 	andi	r4,r4,7
    16c4:	000165c0 	call	165c <_ZN3Imu7SetBankEm>
    uint8_t buffer[1];
    buffer[0] = 0x80 | (address & 0x7F);
    alt_avalon_spi_command(SPI_BASE, SPI_SLAVE, sizeof(buffer), buffer, sizeof(buffer), buffer, 0);
    16c8:	d9c003c4 	addi	r7,sp,15
    buffer[0] = 0x80 | (address & 0x7F);
    16cc:	013fe004 	movi	r4,-128
    alt_avalon_spi_command(SPI_BASE, SPI_SLAVE, sizeof(buffer), buffer, sizeof(buffer), buffer, 0);
    16d0:	00800044 	movi	r2,1
    buffer[0] = 0x80 | (address & 0x7F);
    16d4:	8120b03a 	or	r16,r16,r4
    alt_avalon_spi_command(SPI_BASE, SPI_SLAVE, sizeof(buffer), buffer, sizeof(buffer), buffer, 0);
    16d8:	d8000215 	stw	zero,8(sp)
    16dc:	d9c00115 	stw	r7,4(sp)
    16e0:	d8800015 	stw	r2,0(sp)
    16e4:	01800044 	movi	r6,1
    16e8:	000b883a 	mov	r5,zero
    16ec:	01394014 	movui	r4,58624
    buffer[0] = 0x80 | (address & 0x7F);
    16f0:	dc0003c5 	stb	r16,15(sp)
    alt_avalon_spi_command(SPI_BASE, SPI_SLAVE, sizeof(buffer), buffer, sizeof(buffer), buffer, 0);
    16f4:	00056500 	call	5650 <alt_avalon_spi_command>
    return buffer[0];
}
    16f8:	d88003c3 	ldbu	r2,15(sp)
    16fc:	dfc00517 	ldw	ra,20(sp)
    1700:	dc000417 	ldw	r16,16(sp)
    1704:	dec00604 	addi	sp,sp,24
    1708:	f800283a 	ret

0000170c <_ZN3Imu13WriteRegisterEmh>:

void Imu::WriteRegister(uint32_t address, uint8_t value) {
    170c:	defff904 	addi	sp,sp,-28
    1710:	dc000415 	stw	r16,16(sp)
    1714:	2021883a 	mov	r16,r4
    SetBank((address >> 8) & 0x7);
    1718:	2008d23a 	srli	r4,r4,8
void Imu::WriteRegister(uint32_t address, uint8_t value) {
    171c:	dfc00615 	stw	ra,24(sp)
    1720:	dc400515 	stw	r17,20(sp)
    SetBank((address >> 8) & 0x7);
    1724:	210001cc 	andi	r4,r4,7
void Imu::WriteRegister(uint32_t address, uint8_t value) {
    1728:	2823883a 	mov	r17,r5
    SetBank((address >> 8) & 0x7);
    172c:	000165c0 	call	165c <_ZN3Imu7SetBankEm>
    uint8_t buffer[2];
    buffer[0] = address & 0x7F;
    1730:	84001fcc 	andi	r16,r16,127
    buffer[1] = value;
    alt_avalon_spi_command(SPI_BASE, SPI_SLAVE, sizeof(buffer), buffer, 0, nullptr, 0);
    1734:	d8000215 	stw	zero,8(sp)
    1738:	d8000115 	stw	zero,4(sp)
    173c:	d8000015 	stw	zero,0(sp)
    1740:	d9c00384 	addi	r7,sp,14
    1744:	01800084 	movi	r6,2
    1748:	000b883a 	mov	r5,zero
    174c:	01394014 	movui	r4,58624
    buffer[0] = address & 0x7F;
    1750:	dc000385 	stb	r16,14(sp)
    buffer[1] = value;
    1754:	dc4003c5 	stb	r17,15(sp)
    alt_avalon_spi_command(SPI_BASE, SPI_SLAVE, sizeof(buffer), buffer, 0, nullptr, 0);
    1758:	00056500 	call	5650 <alt_avalon_spi_command>
}
    175c:	dfc00617 	ldw	ra,24(sp)
    1760:	dc400517 	ldw	r17,20(sp)
    1764:	dc000417 	ldw	r16,16(sp)
    1768:	dec00704 	addi	sp,sp,28
    176c:	f800283a 	ret

00001770 <_ZN3Imu10InitializeEv>:
bool Imu::Initialize(void) {
    1770:	defffe04 	addi	sp,sp,-8
    1774:	dc000015 	stw	r16,0(sp)
    1778:	dfc00115 	stw	ra,4(sp)
    __builtin_sthio(&((ImuSpiMasterRegisters*)base)->CONTROL, enabled ? 0x0001 : 0x0000);
    177c:	04000044 	movi	r16,1
    1780:	00b98014 	movui	r2,58880
    1784:	1400002d 	sthio	r16,0(r2)
    _Bank = -1;
    1788:	00bfffc4 	movi	r2,-1
    WriteRegister(ICM42688_BANK0_DEVICE_CONFIG, 0x01);
    178c:	01400044 	movi	r5,1
    1790:	01000444 	movi	r4,17
    _Bank = -1;
    1794:	d0a01b45 	stb	r2,-32659(gp)
    WriteRegister(ICM42688_BANK0_DEVICE_CONFIG, 0x01);
    1798:	000170c0 	call	170c <_ZN3Imu13WriteRegisterEmh>
    usleep(1000);
    179c:	0100fa04 	movi	r4,1000
    17a0:	00054f80 	call	54f8 <usleep>
    if (ReadRegister(ICM42688_BANK0_WHO_AM_I) != 0x47) {
    17a4:	01001d44 	movi	r4,117
    17a8:	00016ac0 	call	16ac <_ZN3Imu12ReadRegisterEm>
    17ac:	10803fcc 	andi	r2,r2,255
    17b0:	108011d8 	cmpnei	r2,r2,71
    17b4:	1000221e 	bne	r2,zero,1840 <_ZN3Imu10InitializeEv+0xd0>
    WriteRegister(ICM42688_BANK1_INTF_CONFIG5, 0x04);  // PIN9_FUNCTION <= CLKIN
    17b8:	01400104 	movi	r5,4
    17bc:	01005ec4 	movi	r4,379
    17c0:	000170c0 	call	170c <_ZN3Imu13WriteRegisterEmh>
    WriteRegister(ICM42688_BANK0_INTF_CONFIG0, 0x13);  // SENSOR_DATA_ENDIAN <= Big Endian, UI_SIFS_CFG <= Disable I2C
    17c4:	014004c4 	movi	r5,19
    17c8:	01001304 	movi	r4,76
    17cc:	000170c0 	call	170c <_ZN3Imu13WriteRegisterEmh>
    WriteRegister(ICM42688_BANK0_INTF_CONFIG1, 0x95);  // RTC_MODE <= RTC clock input is required
    17d0:	01402544 	movi	r5,149
    17d4:	01001344 	movi	r4,77
    17d8:	000170c0 	call	170c <_ZN3Imu13WriteRegisterEmh>
    WriteRegister(ICM42688_BANK0_PWR_MGMT0, 0x0F);     // GYRO_MODE <= LN Mode, ACCEL_MODE <= LN Mode
    17dc:	014003c4 	movi	r5,15
    17e0:	01001384 	movi	r4,78
    17e4:	000170c0 	call	170c <_ZN3Imu13WriteRegisterEmh>
    usleep(200);
    17e8:	01003204 	movi	r4,200
    17ec:	00054f80 	call	54f8 <usleep>
    WriteRegister(ICM42688_BANK0_GYRO_CONFIG1, 0xF6);  // TEMP_FILT_BW <= (DLPF BW = 5Hz; DLPF Latency = 32ms)
    17f0:	01403d84 	movi	r5,246
    17f4:	01001444 	movi	r4,81
    17f8:	000170c0 	call	170c <_ZN3Imu13WriteRegisterEmh>
    WriteRegister(ICM42688_BANK0_INT_CONFIG, 0x02);   // INT1_MODE <= Pulsed mode, INT1_DRIVE_CIRCUIT <= Push pull, INT1_POLARITY <= Active low
    17fc:	01400084 	movi	r5,2
    1800:	01000504 	movi	r4,20
    1804:	000170c0 	call	170c <_ZN3Imu13WriteRegisterEmh>
    WriteRegister(ICM42688_BANK0_INT_CONFIG1, 0x00);  // INT_ASYNC_RESET <= 0
    1808:	000b883a 	mov	r5,zero
    180c:	01001904 	movi	r4,100
    1810:	000170c0 	call	170c <_ZN3Imu13WriteRegisterEmh>
    WriteRegister(ICM42688_BANK0_INT_SOURCE0, 0x08);  // UI_DRDY_INT1_EN <= UI data ready interrupt routed to INT1
    1814:	01400204 	movi	r5,8
    1818:	01001944 	movi	r4,101
    181c:	000170c0 	call	170c <_ZN3Imu13WriteRegisterEmh>
    1820:	00b98014 	movui	r2,58880
    1824:	1000002d 	sthio	zero,0(r2)
    _Valid = true;
    1828:	d4201b05 	stb	r16,-32660(gp)
    return true;
    182c:	00800044 	movi	r2,1
}
    1830:	dfc00117 	ldw	ra,4(sp)
    1834:	dc000017 	ldw	r16,0(sp)
    1838:	dec00204 	addi	sp,sp,8
    183c:	f800283a 	ret
        return false;
    1840:	0005883a 	mov	r2,zero
    1844:	003ffa06 	br	1830 <_ZN3Imu10InitializeEv+0xc0>

00001848 <_ZZ4mainENUlcE_4_FUNEc>:
    char buf[64];
    MICROSHELL ms;
    MSCMD mscmd;
    microshell_init(
        &ms,
        [](char c) {alt_putchar(c);},
    1848:	21003fcc 	andi	r4,r4,255
    184c:	2100201c 	xori	r4,r4,128
    1850:	213fe004 	addi	r4,r4,-128
    1854:	000540c1 	jmpi	540c <alt_putchar>

00001858 <_ZZ4mainENUlvE0_4_FUNEv>:
        [](void) -> char {return alt_getchar();},
    1858:	deffff04 	addi	sp,sp,-4
    185c:	dfc00015 	stw	ra,0(sp)
    1860:	00052140 	call	5214 <alt_getchar>
    1864:	dfc00017 	ldw	ra,0(sp)
    1868:	dec00104 	addi	sp,sp,4
    186c:	f800283a 	ret

00001870 <_ZL13command_faultP5MSOPTPv>:
		__builtin_sthio(&reinterpret_cast<Register_t*>(BASE)->FAULT, 0x1);
    1870:	00800044 	movi	r2,1
    1874:	00fc0114 	movui	r3,61444
    1878:	1880002d 	sthio	r2,0(r3)
        __builtin_sthio(&reinterpret_cast<Register_t*>(BASE)->FAULT, 0x1);
    187c:	00fc4114 	movui	r3,61700
    1880:	1880002d 	sthio	r2,0(r3)
}
    1884:	0005883a 	mov	r2,zero
    1888:	f800283a 	ret

0000188c <_ZL13command_clearP5MSOPTPv>:
        __builtin_stwio(&_SharedMemory.ErrorFlags, new_error_flags);
    188c:	00ffffc4 	movi	r3,-1
    1890:	00800074 	movhi	r2,1
    1894:	10ec0035 	stwio	r3,-20480(r2)
}
    1898:	0005883a 	mov	r2,zero
    189c:	f800283a 	ret

000018a0 <_ZL12command_adc2P5MSOPTPv>:
    printf("P48V=%dmV Idribble=%dmA\n", p48v, dribble);
    18a0:	d1a0180b 	ldhu	r6,-32672(gp)
    18a4:	d160178b 	ldhu	r5,-32674(gp)
    18a8:	01000034 	movhi	r4,0
static MSCMD_USER_RESULT command_adc2(MSOPT *msopt, MSCMD_USER_OBJECT usrobj) {
    18ac:	deffff04 	addi	sp,sp,-4
    printf("P48V=%dmV Idribble=%dmA\n", p48v, dribble);
    18b0:	21177304 	addi	r4,r4,24012
static MSCMD_USER_RESULT command_adc2(MSOPT *msopt, MSCMD_USER_OBJECT usrobj) {
    18b4:	dfc00015 	stw	ra,0(sp)
    printf("P48V=%dmV Idribble=%dmA\n", p48v, dribble);
    18b8:	00047f40 	call	47f4 <printf>
}
    18bc:	0005883a 	mov	r2,zero
    18c0:	dfc00017 	ldw	ra,0(sp)
    18c4:	dec00104 	addi	sp,sp,4
    18c8:	f800283a 	ret

000018cc <_ZL14command_statusP5MSOPTPv>:
static MSCMD_USER_RESULT command_status(MSOPT *msopt, MSCMD_USER_OBJECT usrobj) {
    18cc:	deffff04 	addi	sp,sp,-4
    printf("PIO1=%08X\n", IORD_ALTERA_AVALON_PIO_DATA(PIO_1_BASE));
    18d0:	00b84014 	movui	r2,57600
static MSCMD_USER_RESULT command_status(MSOPT *msopt, MSCMD_USER_OBJECT usrobj) {
    18d4:	dfc00015 	stw	ra,0(sp)
    printf("PIO1=%08X\n", IORD_ALTERA_AVALON_PIO_DATA(PIO_1_BASE));
    18d8:	11400037 	ldwio	r5,0(r2)
    18dc:	01000034 	movhi	r4,0
    18e0:	21177a04 	addi	r4,r4,24040
    18e4:	00047f40 	call	47f4 <printf>
        return MotorControllerStatus(__builtin_ldhuio(&reinterpret_cast<Register_t*>(BASE)->STATUS));
    18e8:	00bc4014 	movui	r2,61696
    18ec:	1140002b 	ldhuio	r5,0(r2)
        return MotorControllerStatus(__builtin_ldhuio(&reinterpret_cast<Register_t*>(BASE)->INTFLAG));
    18f0:	00bc4094 	movui	r2,61698
        return MotorControllerStatus(__builtin_ldhuio(&reinterpret_cast<Register_t*>(BASE)->STATUS));
    18f4:	297fffcc 	andi	r5,r5,65535
        return MotorControllerStatus(__builtin_ldhuio(&reinterpret_cast<Register_t*>(BASE)->INTFLAG));
    18f8:	1180002b 	ldhuio	r6,0(r2)
    printf("Mc5Status=%04X (%04X)\n", MotorController::GetStatus().Status, MotorController::GetInterruptFlag().Status);
    18fc:	01000034 	movhi	r4,0
    1900:	31bfffcc 	andi	r6,r6,65535
    1904:	21177d04 	addi	r4,r4,24052
    1908:	00047f40 	call	47f4 <printf>
        return VectorControllerStatus(__builtin_ldhuio(&reinterpret_cast<Register_t*>(BASE)->STATUS));
    190c:	00bc0014 	movui	r2,61440
    1910:	1140002b 	ldhuio	r5,0(r2)
		return VectorControllerStatus(__builtin_ldhuio(&reinterpret_cast<Register_t*>(BASE)->INTFLAG));
    1914:	00bc0094 	movui	r2,61442
        return VectorControllerStatus(__builtin_ldhuio(&reinterpret_cast<Register_t*>(BASE)->STATUS));
    1918:	297fffcc 	andi	r5,r5,65535
		return VectorControllerStatus(__builtin_ldhuio(&reinterpret_cast<Register_t*>(BASE)->INTFLAG));
    191c:	1180002b 	ldhuio	r6,0(r2)
    printf("VecStatus=%04X (%04X)\n", VectorController::GetStatus().Status, VectorController::GetInterruptFlag().Status);
    1920:	01000034 	movhi	r4,0
    1924:	31bfffcc 	andi	r6,r6,65535
    1928:	21178304 	addi	r4,r4,24076
    192c:	00047f40 	call	47f4 <printf>
        return _ErrorFlags;
    1930:	d1601417 	ldw	r5,-32688(gp)
        return _FaultFlags;
    1934:	d1a01317 	ldw	r6,-32692(gp)
    printf("Error=%08X, Fault=%08X\n", (int)CentralizedMonitor::GetErrorFlags(), (int)CentralizedMonitor::GetFaultFlags());
    1938:	01000034 	movhi	r4,0
    193c:	21178904 	addi	r4,r4,24100
    1940:	00047f40 	call	47f4 <printf>
}
    1944:	0005883a 	mov	r2,zero
    1948:	dfc00017 	ldw	ra,0(sp)
    194c:	dec00104 	addi	sp,sp,4
    1950:	f800283a 	ret

00001954 <_ZL11command_imuP5MSOPTPv>:
static MSCMD_USER_RESULT command_imu(MSOPT *msopt, MSCMD_USER_OBJECT usrobj) {
    1954:	defff804 	addi	sp,sp,-32
    Imu::ReadData(&result);
    1958:	d9000384 	addi	r4,sp,14
static MSCMD_USER_RESULT command_imu(MSOPT *msopt, MSCMD_USER_OBJECT usrobj) {
    195c:	dfc00715 	stw	ra,28(sp)
    Imu::ReadData(&result);
    1960:	00016040 	call	1604 <_ZN3Imu8ReadDataEP11ImuResult_t>
    printf("Accel(%d, %d, %d) Gyro(%d, %d, %d)\n", result.AccelDataX, result.AccelDataY, result.AccelDataZ, result.GyroDataX, result.GyroDataY, result.GyroDataZ);
    1964:	d880068f 	ldh	r2,26(sp)
    1968:	d9c0050f 	ldh	r7,20(sp)
    196c:	d980048f 	ldh	r6,18(sp)
    1970:	d8800215 	stw	r2,8(sp)
    1974:	d880060f 	ldh	r2,24(sp)
    1978:	d940040f 	ldh	r5,16(sp)
    197c:	01000034 	movhi	r4,0
    1980:	d8800115 	stw	r2,4(sp)
    1984:	d880058f 	ldh	r2,22(sp)
    1988:	21178f04 	addi	r4,r4,24124
    198c:	d8800015 	stw	r2,0(sp)
    1990:	00047f40 	call	47f4 <printf>
}
    1994:	0005883a 	mov	r2,zero
    1998:	dfc00717 	ldw	ra,28(sp)
    199c:	dec00804 	addi	sp,sp,32
    19a0:	f800283a 	ret

000019a4 <_ZL10command_kiP5MSOPTPv>:
static MSCMD_USER_RESULT command_ki(MSOPT *msopt, MSCMD_USER_OBJECT usrobj) {
    19a4:	defff404 	addi	sp,sp,-48
    msopt_get_argc(msopt, &argc);
    19a8:	d80b883a 	mov	r5,sp
static MSCMD_USER_RESULT command_ki(MSOPT *msopt, MSCMD_USER_OBJECT usrobj) {
    19ac:	dc000a15 	stw	r16,40(sp)
    19b0:	dfc00b15 	stw	ra,44(sp)
    19b4:	2021883a 	mov	r16,r4
    msopt_get_argc(msopt, &argc);
    19b8:	00008e40 	call	8e4 <msopt_get_argc>
    if (argc == 2) {
    19bc:	d8800017 	ldw	r2,0(sp)
    19c0:	10800098 	cmpnei	r2,r2,2
    19c4:	1000121e 	bne	r2,zero,1a10 <_ZL10command_kiP5MSOPTPv+0x6c>
        msopt_get_argv(msopt, 1, buf, sizeof(buf));
    19c8:	01c00804 	movi	r7,32
    19cc:	d9800204 	addi	r6,sp,8
    19d0:	01400044 	movi	r5,1
    19d4:	8009883a 	mov	r4,r16
    19d8:	000090c0 	call	90c <msopt_get_argv>
        int value = ntlibc_atoi(buf);
    19dc:	d9000204 	addi	r4,sp,8
    19e0:	00009dc0 	call	9dc <ntlibc_atoi>
        WheelController::GetGains(&kp, nullptr);
    19e4:	000b883a 	mov	r5,zero
    19e8:	d9000104 	addi	r4,sp,4
        int value = ntlibc_atoi(buf);
    19ec:	1021883a 	mov	r16,r2
        WheelController::GetGains(&kp, nullptr);
    19f0:	00023480 	call	2348 <_ZN15WheelController8GetGainsEPfS0_>
        WheelController::SetGains(kp, (float)value);
    19f4:	d9000117 	ldw	r4,4(sp)
    19f8:	800bfeb2 	custom	250,r5,r16,zero
    19fc:	00022ec0 	call	22ec <_ZN15WheelController8SetGainsEff>
        printf("Ki = %d\n", value);
    1a00:	01000034 	movhi	r4,0
    1a04:	800b883a 	mov	r5,r16
    1a08:	21179804 	addi	r4,r4,24160
    1a0c:	00047f40 	call	47f4 <printf>
}
    1a10:	0005883a 	mov	r2,zero
    1a14:	dfc00b17 	ldw	ra,44(sp)
    1a18:	dc000a17 	ldw	r16,40(sp)
    1a1c:	dec00c04 	addi	sp,sp,48
    1a20:	f800283a 	ret

00001a24 <_ZL10command_kpP5MSOPTPv>:
static MSCMD_USER_RESULT command_kp(MSOPT *msopt, MSCMD_USER_OBJECT usrobj) {
    1a24:	defff404 	addi	sp,sp,-48
    msopt_get_argc(msopt, &argc);
    1a28:	d80b883a 	mov	r5,sp
static MSCMD_USER_RESULT command_kp(MSOPT *msopt, MSCMD_USER_OBJECT usrobj) {
    1a2c:	dc000a15 	stw	r16,40(sp)
    1a30:	dfc00b15 	stw	ra,44(sp)
    1a34:	2021883a 	mov	r16,r4
    msopt_get_argc(msopt, &argc);
    1a38:	00008e40 	call	8e4 <msopt_get_argc>
    if (argc == 2) {
    1a3c:	d8800017 	ldw	r2,0(sp)
    1a40:	10800098 	cmpnei	r2,r2,2
    1a44:	1000121e 	bne	r2,zero,1a90 <_ZL10command_kpP5MSOPTPv+0x6c>
        msopt_get_argv(msopt, 1, buf, sizeof(buf));
    1a48:	01c00804 	movi	r7,32
    1a4c:	d9800204 	addi	r6,sp,8
    1a50:	01400044 	movi	r5,1
    1a54:	8009883a 	mov	r4,r16
    1a58:	000090c0 	call	90c <msopt_get_argv>
        int value = ntlibc_atoi(buf);
    1a5c:	d9000204 	addi	r4,sp,8
    1a60:	00009dc0 	call	9dc <ntlibc_atoi>
        WheelController::GetGains(nullptr, &ki);
    1a64:	d9400104 	addi	r5,sp,4
    1a68:	0009883a 	mov	r4,zero
        int value = ntlibc_atoi(buf);
    1a6c:	1021883a 	mov	r16,r2
        WheelController::GetGains(nullptr, &ki);
    1a70:	00023480 	call	2348 <_ZN15WheelController8GetGainsEPfS0_>
        WheelController::SetGains((float)value, ki);
    1a74:	d9400117 	ldw	r5,4(sp)
    1a78:	8009feb2 	custom	250,r4,r16,zero
    1a7c:	00022ec0 	call	22ec <_ZN15WheelController8SetGainsEff>
        printf("Kp = %d\n", value);
    1a80:	01000034 	movhi	r4,0
    1a84:	800b883a 	mov	r5,r16
    1a88:	21179b04 	addi	r4,r4,24172
    1a8c:	00047f40 	call	47f4 <printf>
}
    1a90:	0005883a 	mov	r2,zero
    1a94:	dfc00b17 	ldw	ra,44(sp)
    1a98:	dc000a17 	ldw	r16,40(sp)
    1a9c:	dec00c04 	addi	sp,sp,48
    1aa0:	f800283a 	ret

00001aa4 <_ZL14command_switchP5MSOPTPv>:
static MSCMD_USER_RESULT command_switch(MSOPT *msopt, MSCMD_USER_OBJECT usrobj) {
    1aa4:	defff504 	addi	sp,sp,-44
    msopt_get_argc(msopt, &argc);
    1aa8:	d80b883a 	mov	r5,sp
static MSCMD_USER_RESULT command_switch(MSOPT *msopt, MSCMD_USER_OBJECT usrobj) {
    1aac:	dc000915 	stw	r16,36(sp)
    1ab0:	dfc00a15 	stw	ra,40(sp)
    1ab4:	2021883a 	mov	r16,r4
    msopt_get_argc(msopt, &argc);
    1ab8:	00008e40 	call	8e4 <msopt_get_argc>
    if (argc == 2) {
    1abc:	d8800017 	ldw	r2,0(sp)
    1ac0:	10800098 	cmpnei	r2,r2,2
    1ac4:	1000161e 	bne	r2,zero,1b20 <_ZL14command_switchP5MSOPTPv+0x7c>
        msopt_get_argv(msopt, 1, buf, sizeof(buf));
    1ac8:	01400044 	movi	r5,1
    1acc:	01c00804 	movi	r7,32
    1ad0:	d9800104 	addi	r6,sp,4
    1ad4:	8009883a 	mov	r4,r16
    1ad8:	000090c0 	call	90c <msopt_get_argv>
        bool enabled = buf[0] == '1';
    1adc:	d9400107 	ldb	r5,4(sp)
            IOWR_ALTERA_AVALON_PIO_CLEAR_BITS(PIO_2_BASE, Pio2Motor1SwitchEnable);
    1ae0:	00c00804 	movi	r3,32
    1ae4:	29400c60 	cmpeqi	r5,r5,49
        if (enabled == false) {
    1ae8:	2800121e 	bne	r5,zero,1b34 <_ZL14command_switchP5MSOPTPv+0x90>
            IOWR_ALTERA_AVALON_PIO_CLEAR_BITS(PIO_2_BASE, Pio2Motor1SwitchEnable);
    1aec:	00b88514 	movui	r2,57876
            IOWR_ALTERA_AVALON_PIO_SET_BITS(PIO_2_BASE, Pio2Motor1SwitchEnable);
    1af0:	10c00035 	stwio	r3,0(r2)
            IOWR_ALTERA_AVALON_PIO_SET_BITS(PIO_2_BASE, Pio2Motor2SwitchEnable);
    1af4:	00c01004 	movi	r3,64
    1af8:	10c00035 	stwio	r3,0(r2)
            IOWR_ALTERA_AVALON_PIO_SET_BITS(PIO_2_BASE, Pio2Motor3SwitchEnable);
    1afc:	00c02004 	movi	r3,128
    1b00:	10c00035 	stwio	r3,0(r2)
            IOWR_ALTERA_AVALON_PIO_SET_BITS(PIO_2_BASE, Pio2Motor4SwitchEnable);
    1b04:	00c04004 	movi	r3,256
    1b08:	10c00035 	stwio	r3,0(r2)
            IOWR_ALTERA_AVALON_PIO_SET_BITS(PIO_2_BASE, Pio2Motor5SwitchEnable);
    1b0c:	00c08004 	movi	r3,512
    1b10:	10c00035 	stwio	r3,0(r2)
        printf("Switch<=%d\n", enabled);
    1b14:	01000034 	movhi	r4,0
    1b18:	21179e04 	addi	r4,r4,24184
    1b1c:	00047f40 	call	47f4 <printf>
}
    1b20:	0005883a 	mov	r2,zero
    1b24:	dfc00a17 	ldw	ra,40(sp)
    1b28:	dc000917 	ldw	r16,36(sp)
    1b2c:	dec00b04 	addi	sp,sp,44
    1b30:	f800283a 	ret
            IOWR_ALTERA_AVALON_PIO_SET_BITS(PIO_2_BASE, Pio2Motor1SwitchEnable);
    1b34:	00b88414 	movui	r2,57872
    1b38:	003fed06 	br	1af0 <_ZL14command_switchP5MSOPTPv+0x4c>

00001b3c <main>:
int main(void) {
    1b3c:	00800034 	movhi	r2,0
    1b40:	deffd604 	addi	sp,sp,-168
    1b44:	108a2204 	addi	r2,r2,10376
    1b48:	d8800715 	stw	r2,28(sp)
    1b4c:	00800034 	movhi	r2,0
    1b50:	10973504 	addi	r2,r2,23764
    1b54:	d8800815 	stw	r2,32(sp)
    1b58:	00800034 	movhi	r2,0
    1b5c:	10871204 	addi	r2,r2,7240
    1b60:	d9000104 	addi	r4,sp,4
    1b64:	dfc02915 	stw	ra,164(sp)
    1b68:	df002815 	stw	fp,160(sp)
    1b6c:	df000915 	stw	fp,36(sp)
    1b70:	d8800a15 	stw	r2,40(sp)
    1b74:	dec00b15 	stw	sp,44(sp)
    1b78:	00041a80 	call	41a8 <_Unwind_SjLj_Register>
  NIOS2_READ_STATUS (context);
    1b7c:	0007303a 	rdctl	r3,status
  NIOS2_WRITE_STATUS (context & ~NIOS2_STATUS_PIE_MSK);
    1b80:	00bfff84 	movi	r2,-2
    1b84:	1884703a 	and	r2,r3,r2
    1b88:	1001703a 	wrctl	status,r2
        _Context = alt_irq_disable_all();
    1b8c:	d8c01815 	stw	r3,96(sp)
        __builtin_sync();
    1b90:	0001b03a 	sync
    Imu::Initialize();
    1b94:	00800044 	movi	r2,1
    1b98:	d8800215 	stw	r2,8(sp)
    1b9c:	00017700 	call	1770 <_ZN3Imu10InitializeEv>
    Adc2::Initialize();
    1ba0:	00015c80 	call	15c8 <_ZN4Adc210InitializeEv>
        ClearParameters();
    1ba4:	0001e640 	call	1e64 <_ZN12SharedMemory15ClearParametersEv>
public:
    /**
     * 
     */
    static void Initialize(void) {
        alt_msgdma_dev *dev = alt_msgdma_open(MSGDMA_0_CSR_NAME);
    1ba8:	01000034 	movhi	r4,0
    1bac:	2117a104 	addi	r4,r4,24196
    1bb0:	00058000 	call	5800 <alt_msgdma_open>
        _Device = dev;
    1bb4:	d0a01c15 	stw	r2,-32656(gp)
    CentralizedMonitor::Initialize();
    1bb8:	0000ef40 	call	ef4 <_ZN18CentralizedMonitor10InitializeEv>
public:
    /**
     * 
     */
    static void Initialize(void){
        StopControl();
    1bbc:	00020e80 	call	20e8 <_ZN15WheelController11StopControlEv>
public:
    /**
     * 
     */
    static void Initialize(void){
        StopControl();
    1bc0:	00012380 	call	1238 <_ZN17DribbleController11StopControlEv>
    Adc2::Start();
    1bc4:	00013a40 	call	13a4 <_ZN4Adc25StartEv>
    CentralizedMonitor::Start();
    1bc8:	0000b100 	call	b10 <_ZN18CentralizedMonitor5StartEv>
        CriticalSection cs;
    1bcc:	d9001804 	addi	r4,sp,96
    1bd0:	0000ab40 	call	ab4 <_ZN15CriticalSectionD1Ev>
    microshell_init(
    1bd4:	01800034 	movhi	r6,0
    1bd8:	01400034 	movhi	r5,0
    1bdc:	00bfffc4 	movi	r2,-1
    1be0:	000f883a 	mov	r7,zero
    1be4:	31861604 	addi	r6,r6,6232
    1be8:	29461204 	addi	r5,r5,6216
    1bec:	d9001204 	addi	r4,sp,72
    1bf0:	d8800215 	stw	r2,8(sp)
    1bf4:	00002040 	call	204 <microshell_init>
        {"switch", command_switch},
        {"status", command_status},
        {"clear", command_clear},
        {"f", command_fault}
    };
    mscmd_init(&mscmd, const_cast<MSCMD_COMMAND_TABLE*>(command_table), sizeof(command_table) / sizeof(command_table[0]), nullptr);
    1bf8:	01400034 	movhi	r5,0
    1bfc:	d9000f04 	addi	r4,sp,60
    1c00:	000f883a 	mov	r7,zero
    1c04:	01800204 	movi	r6,8
    1c08:	2957b704 	addi	r5,r5,24284
    1c0c:	00006f00 	call	6f0 <mscmd_init>

    // 
    alt_putstr("Hello from Nios II!\n");
    1c10:	01000034 	movhi	r4,0
    1c14:	2117a604 	addi	r4,r4,24216
    1c18:	00054580 	call	5458 <alt_putstr>

    // 
    while (true) {
        microshell_getline(&ms, buf, sizeof(buf));
    1c1c:	d9401804 	addi	r5,sp,96
    1c20:	d9001204 	addi	r4,sp,72
    1c24:	00bfffc4 	movi	r2,-1
    1c28:	01801004 	movi	r6,64
    1c2c:	d8800215 	stw	r2,8(sp)
    1c30:	00002580 	call	258 <microshell_getline>
        MSCMD_USER_RESULT result;
        mscmd_execute(&mscmd, buf, &result);
    1c34:	d9800e04 	addi	r6,sp,56
    1c38:	d9401804 	addi	r5,sp,96
    1c3c:	d9000f04 	addi	r4,sp,60
    1c40:	00007040 	call	704 <mscmd_execute>
    while (true) {
    1c44:	003ff506 	br	1c1c <main+0xe0>
        CriticalSection cs;
    1c48:	d8800317 	ldw	r2,12(sp)
    1c4c:	d9001804 	addi	r4,sp,96
    1c50:	d8800015 	stw	r2,0(sp)
    1c54:	0000ab40 	call	ab4 <_ZN15CriticalSectionD1Ev>
    1c58:	d9000017 	ldw	r4,0(sp)
    1c5c:	00bfffc4 	movi	r2,-1
    1c60:	d8800215 	stw	r2,8(sp)
    1c64:	00043900 	call	4390 <_Unwind_SjLj_Resume>

00001c68 <_ZNK24MsgdmaTransmitDescriptor13TransmitAsyncEP14alt_msgdma_dev>:
#include <altera_msgdma_descriptor_regs.h>
#include <altera_msgdma_csr_regs.h>
#include <altera_msgdma_response_regs.h>
#include <driver/critical_section.hpp>

bool MsgdmaTransmitDescriptor::TransmitAsync(alt_msgdma_dev *dev) const {
    1c68:	00800034 	movhi	r2,0
    1c6c:	deffee04 	addi	sp,sp,-72
    1c70:	108a2204 	addi	r2,r2,10376
    1c74:	d8800815 	stw	r2,32(sp)
    1c78:	00800034 	movhi	r2,0
    1c7c:	d9000115 	stw	r4,4(sp)
    1c80:	10876704 	addi	r2,r2,7580
    1c84:	d9000204 	addi	r4,sp,8
    1c88:	d8800b15 	stw	r2,44(sp)
    1c8c:	dfc01115 	stw	ra,68(sp)
    1c90:	df001015 	stw	fp,64(sp)
    1c94:	d9400015 	stw	r5,0(sp)
    1c98:	d8000915 	stw	zero,36(sp)
    1c9c:	df000a15 	stw	fp,40(sp)
    1ca0:	dec00c15 	stw	sp,48(sp)
    1ca4:	00041a80 	call	41a8 <_Unwind_SjLj_Register>
    // FIFO
    if (IORD_ALTERA_MSGDMA_CSR_STATUS(dev->csr_base) & ALTERA_MSGDMA_CSR_DESCRIPTOR_BUFFER_FULL_MASK) {
    1ca8:	d8800017 	ldw	r2,0(sp)
    1cac:	10800317 	ldw	r2,12(r2)
    1cb0:	10800037 	ldwio	r2,0(r2)
    1cb4:	1080010c 	andi	r2,r2,4
    1cb8:	10000d1e 	bne	r2,zero,1cf0 <_ZNK24MsgdmaTransmitDescriptor13TransmitAsyncEP14alt_msgdma_dev+0x88>
  NIOS2_READ_STATUS (context);
    1cbc:	0007303a 	rdctl	r3,status
  NIOS2_WRITE_STATUS (context & ~NIOS2_STATUS_PIE_MSK);
    1cc0:	00bfff84 	movi	r2,-2
    1cc4:	1884703a 	and	r2,r3,r2
    1cc8:	1001703a 	wrctl	status,r2
        _Context = alt_irq_disable_all();
    1ccc:	d8c00f15 	stw	r3,60(sp)
        __builtin_sync();
    1cd0:	0001b03a 	sync

    {
        CriticalSection cs;

        // FIFO
        if (IORD_ALTERA_MSGDMA_CSR_STATUS(dev->csr_base) & ALTERA_MSGDMA_CSR_DESCRIPTOR_BUFFER_FULL_MASK) {
    1cd4:	d8800017 	ldw	r2,0(sp)
    1cd8:	10c00317 	ldw	r3,12(r2)
    1cdc:	18800037 	ldwio	r2,0(r3)
    1ce0:	1080010c 	andi	r2,r2,4
    1ce4:	10000426 	beq	r2,zero,1cf8 <_ZNK24MsgdmaTransmitDescriptor13TransmitAsyncEP14alt_msgdma_dev+0x90>
            return false;
    1ce8:	d9000f04 	addi	r4,sp,60
    1cec:	0000ab40 	call	ab4 <_ZN15CriticalSectionD1Ev>
        return false;
    1cf0:	d8000005 	stb	zero,0(sp)
    1cf4:	00002906 	br	1d9c <_ZNK24MsgdmaTransmitDescriptor13TransmitAsyncEP14alt_msgdma_dev+0x134>
        }

        // 
        IOWR_ALTERA_MSGDMA_CSR_CONTROL(dev->csr_base, ALTERA_MSGDMA_CSR_STOP_DESCRIPTORS_MASK);
    1cf8:	00800804 	movi	r2,32
    1cfc:	18800135 	stwio	r2,4(r3)

        // IRQ
        IOWR_ALTERA_MSGDMA_CSR_STATUS(dev->csr_base, ALTERA_MSGDMA_CSR_IRQ_SET_MASK);
    1d00:	d8800017 	ldw	r2,0(sp)
    1d04:	00c08004 	movi	r3,512
    1d08:	10800317 	ldw	r2,12(r2)
    1d0c:	10c00035 	stwio	r3,0(r2)

        // FIFO
        IOWR_ALTERA_MSGDMA_DESCRIPTOR_READ_ADDRESS(dev->descriptor_base, reinterpret_cast<alt_u32>(_ReadAddress));
    1d10:	d8800017 	ldw	r2,0(sp)
    1d14:	d8c00117 	ldw	r3,4(sp)
    1d18:	10800417 	ldw	r2,16(r2)
    1d1c:	18c00017 	ldw	r3,0(r3)
    1d20:	10c00035 	stwio	r3,0(r2)
        IOWR_ALTERA_MSGDMA_DESCRIPTOR_WRITE_ADDRESS(dev->descriptor_base, reinterpret_cast<alt_u32>(_WriteAddress));
    1d24:	d8800017 	ldw	r2,0(sp)
    1d28:	d8c00117 	ldw	r3,4(sp)
    1d2c:	10800417 	ldw	r2,16(r2)
    1d30:	18c00117 	ldw	r3,4(r3)
    1d34:	10c00135 	stwio	r3,4(r2)
        IOWR_ALTERA_MSGDMA_DESCRIPTOR_LENGTH(dev->descriptor_base, _TransferLength);
    1d38:	d8800017 	ldw	r2,0(sp)
    1d3c:	d8c00117 	ldw	r3,4(sp)
    1d40:	10800417 	ldw	r2,16(r2)
    1d44:	18c00217 	ldw	r3,8(r3)
    1d48:	10c00235 	stwio	r3,8(r2)
        IOWR_ALTERA_MSGDMA_DESCRIPTOR_CONTROL_STANDARD(dev->descriptor_base, _Control);
    1d4c:	d8800017 	ldw	r2,0(sp)
    1d50:	d8c00117 	ldw	r3,4(sp)
    1d54:	10800417 	ldw	r2,16(r2)
    1d58:	18c00317 	ldw	r3,12(r3)
    1d5c:	10c00335 	stwio	r3,12(r2)

        // CONTROL
        alt_u32 control = dev->control;
        if (dev->callback == nullptr) {
    1d60:	d8800017 	ldw	r2,0(sp)
    1d64:	00fff7c4 	movi	r3,-33
    1d68:	10800d17 	ldw	r2,52(r2)
    1d6c:	10c4703a 	and	r2,r2,r3
    1d70:	d8c00017 	ldw	r3,0(sp)
    1d74:	18c00b17 	ldw	r3,44(r3)
    1d78:	18000f1e 	bne	r3,zero,1db8 <_ZNK24MsgdmaTransmitDescriptor13TransmitAsyncEP14alt_msgdma_dev+0x150>
            control |= ALTERA_MSGDMA_CSR_STOP_ON_ERROR_MASK;
            control &= (~ALTERA_MSGDMA_CSR_STOP_DESCRIPTORS_MASK | ALTERA_MSGDMA_CSR_GLOBAL_INTERRUPT_MASK);
    1d7c:	10800114 	ori	r2,r2,4
        }
        else{
            control |= ALTERA_MSGDMA_CSR_STOP_ON_ERROR_MASK | ALTERA_MSGDMA_CSR_GLOBAL_INTERRUPT_MASK;
            control &= ~ALTERA_MSGDMA_CSR_STOP_DESCRIPTORS_MASK;
        }
        IOWR_ALTERA_MSGDMA_CSR_CONTROL(dev->csr_base, control);
    1d80:	d8c00017 	ldw	r3,0(sp)
    1d84:	18c00317 	ldw	r3,12(r3)
    1d88:	18800135 	stwio	r2,4(r3)
        CriticalSection cs;
    1d8c:	d9000f04 	addi	r4,sp,60
    1d90:	0000ab40 	call	ab4 <_ZN15CriticalSectionD1Ev>
    }

    return true;
    1d94:	00800044 	movi	r2,1
    1d98:	d8800005 	stb	r2,0(sp)
    1d9c:	d9000204 	addi	r4,sp,8
    1da0:	00041c00 	call	41c0 <_Unwind_SjLj_Unregister>
}
    1da4:	d8800003 	ldbu	r2,0(sp)
    1da8:	dfc01117 	ldw	ra,68(sp)
    1dac:	df001017 	ldw	fp,64(sp)
    1db0:	dec01204 	addi	sp,sp,72
    1db4:	f800283a 	ret
            control &= ~ALTERA_MSGDMA_CSR_STOP_DESCRIPTORS_MASK;
    1db8:	10800514 	ori	r2,r2,20
    1dbc:	003ff006 	br	1d80 <_ZNK24MsgdmaTransmitDescriptor13TransmitAsyncEP14alt_msgdma_dev+0x118>

00001dc0 <_ZN12SharedMemory16UpdateParametersEv>:
#include "shared_memory.hpp"

bool SharedMemory::UpdateParameters(void){
    1dc0:	defff704 	addi	sp,sp,-36
    1dc4:	dc000615 	stw	r16,24(sp)
     * 
     * 
     * @return 
     */
    static SharedMemory_t* GetNonCachedSharedMemory(void){
        return reinterpret_cast<SharedMemory_t*>(reinterpret_cast<uint32_t>(&_SharedMemory) | 0x80000000UL);
    1dc8:	04000074 	movhi	r16,1
    1dcc:	842c0004 	addi	r16,r16,-20480
    1dd0:	84200034 	orhi	r16,r16,32768
    // 
    SharedMemory_t *shared_memory = GetNonCachedSharedMemory();
    uint32_t tail_checksum = shared_memory->TailChecksum;
    SharedMemory_t::Parameters_t parameters;
    memcpy(&parameters, &shared_memory->Parameters, sizeof(parameters));
    1dd4:	01800604 	movi	r6,24
    1dd8:	81400304 	addi	r5,r16,12
    1ddc:	d809883a 	mov	r4,sp
bool SharedMemory::UpdateParameters(void){
    1de0:	dc400715 	stw	r17,28(sp)
    1de4:	dfc00815 	stw	ra,32(sp)
    uint32_t tail_checksum = shared_memory->TailChecksum;
    1de8:	84400917 	ldw	r17,36(r16)
    memcpy(&parameters, &shared_memory->Parameters, sizeof(parameters));
    1dec:	00044ec0 	call	44ec <memcpy>
    uint32_t head_checksum = shared_memory->HeadChecksum;

    //
    if (parameters.FrameNumber == _Parameters.FrameNumber){
    1df0:	00800074 	movhi	r2,1
    1df4:	d8c00017 	ldw	r3,0(sp)
    1df8:	10a0bd17 	ldw	r2,-32012(r2)
    1dfc:	18801726 	beq	r3,r2,1e5c <_ZN12SharedMemory16UpdateParametersEv+0x9c>
    uint32_t head_checksum = shared_memory->HeadChecksum;
    1e00:	81000217 	ldw	r4,8(r16)
        return false;
    }

    // 
    if ((head_checksum != tail_checksum) || (head_checksum != parameters.CalculateChecksum())){
    1e04:	8900151e 	bne	r17,r4,1e5c <_ZN12SharedMemory16UpdateParametersEv+0x9c>
         * @return 
         */
        uint32_t CalculateChecksum(void) const {
            auto p = reinterpret_cast<const uint32_t*>(this);
            int count = sizeof(Parameters_t) / sizeof(uint32_t);
            uint32_t result = 0xA5A5A5A5;
    1e08:	00a969b4 	movhi	r2,42406
    1e0c:	0007883a 	mov	r3,zero
    1e10:	10a96944 	addi	r2,r2,-23131
            while (0 <= --count) {
                result += *p++;
    1e14:	d8cb883a 	add	r5,sp,r3
    1e18:	29400017 	ldw	r5,0(r5)
    1e1c:	18c00104 	addi	r3,r3,4
    1e20:	1145883a 	add	r2,r2,r5
            while (0 <= --count) {
    1e24:	19400618 	cmpnei	r5,r3,24
    1e28:	283ffa1e 	bne	r5,zero,1e14 <_ZN12SharedMemory16UpdateParametersEv+0x54>
    1e2c:	20800b1e 	bne	r4,r2,1e5c <_ZN12SharedMemory16UpdateParametersEv+0x9c>
        return false;
    }

    // 
    memcpy(&_Parameters, &parameters, sizeof(_Parameters));
    1e30:	01000074 	movhi	r4,1
    1e34:	01800604 	movi	r6,24
    1e38:	d80b883a 	mov	r5,sp
    1e3c:	2120bd04 	addi	r4,r4,-32012
    1e40:	00044ec0 	call	44ec <memcpy>
    return true;
    1e44:	00800044 	movi	r2,1
}
    1e48:	dfc00817 	ldw	ra,32(sp)
    1e4c:	dc400717 	ldw	r17,28(sp)
    1e50:	dc000617 	ldw	r16,24(sp)
    1e54:	dec00904 	addi	sp,sp,36
    1e58:	f800283a 	ret
        return false;
    1e5c:	0005883a 	mov	r2,zero
    1e60:	003ff906 	br	1e48 <_ZN12SharedMemory16UpdateParametersEv+0x88>

00001e64 <_ZN12SharedMemory15ClearParametersEv>:

void SharedMemory::ClearParameters(void){
    // 
    memset(&_Parameters, 0, sizeof(_Parameters));
    1e64:	01000074 	movhi	r4,1
void SharedMemory::ClearParameters(void){
    1e68:	deffff04 	addi	sp,sp,-4
    memset(&_Parameters, 0, sizeof(_Parameters));
    1e6c:	01800604 	movi	r6,24
    1e70:	000b883a 	mov	r5,zero
    1e74:	2120bd04 	addi	r4,r4,-32012
void SharedMemory::ClearParameters(void){
    1e78:	dfc00015 	stw	ra,0(sp)
    memset(&_Parameters, 0, sizeof(_Parameters));
    1e7c:	00045740 	call	4574 <memset>
    1e80:	00800074 	movhi	r2,1
    1e84:	10ac0004 	addi	r2,r2,-20480
    1e88:	10a00034 	orhi	r2,r2,32768

    // 
    SharedMemory_t *shared_memory = GetNonCachedSharedMemory();
    shared_memory->HeadChecksum = 0;
    1e8c:	10000215 	stw	zero,8(r2)
    shared_memory->Parameters.FrameNumber = 0;
    1e90:	10000315 	stw	zero,12(r2)
    shared_memory->TailChecksum = 0;
    1e94:	10000915 	stw	zero,36(r2)
}
    1e98:	dfc00017 	ldw	ra,0(sp)
    1e9c:	dec00104 	addi	sp,sp,4
    1ea0:	f800283a 	ret

00001ea4 <_ZN17StreamTransmitter14TransmitStatusEv>:
        return _ErrorFlags;
    1ea4:	d0a01417 	ldw	r2,-32688(gp)

static StreamDataMotion_t StreamDataMotion;
static constexpr MsgdmaTransmitDescriptor StreamDataDesciptorMotion(StreamDataMotion, StreamIdMotion);

void StreamTransmitter::TransmitStatus(void) {
    __builtin_stwio(&StreamDataStatus.error_flags, CentralizedMonitor::GetErrorFlags());
    1ea8:	d0a01e35 	stwio	r2,-32648(gp)
        return _FaultFlags;
    1eac:	d0a01317 	ldw	r2,-32692(gp)
    __builtin_stwio(&StreamDataStatus.fault_flags, CentralizedMonitor::GetFaultFlags());
    1eb0:	d0a01f35 	stwio	r2,-32644(gp)
    StreamDataDesciptorStatus.TransmitAsync(_Device);
    1eb4:	d1601c17 	ldw	r5,-32656(gp)
    1eb8:	01000034 	movhi	r4,0
    1ebc:	2117cf04 	addi	r4,r4,24380
    1ec0:	0001c681 	jmpi	1c68 <_ZNK24MsgdmaTransmitDescriptor13TransmitAsyncEP14alt_msgdma_dev>

00001ec4 <_ZN17StreamTransmitter12TransmitAdc2Ev>:
}

void StreamTransmitter::TransmitAdc2(void) {
    __builtin_sthio(&StreamDataAdc2.dc48v_voltage, Adc2::GetDc48v());
    1ec4:	d0a0178b 	ldhu	r2,-32674(gp)
    1ec8:	d0a01d2d 	sthio	r2,-32652(gp)
    __builtin_sthio(&StreamDataAdc2.dribble_current, Adc2::GetDribbleCurrent());
    1ecc:	d0a0180b 	ldhu	r2,-32672(gp)
    1ed0:	d0a01dad 	sthio	r2,-32650(gp)
    StreamDataDesciptorAdc2.TransmitAsync(_Device);
    1ed4:	d1601c17 	ldw	r5,-32656(gp)
    1ed8:	01000034 	movhi	r4,0
    1edc:	2117cb04 	addi	r4,r4,24364
    1ee0:	0001c681 	jmpi	1c68 <_ZNK24MsgdmaTransmitDescriptor13TransmitAsyncEP14alt_msgdma_dev>

00001ee4 <_ZN17StreamTransmitter14TransmitMotionEi>:
}

void StreamTransmitter::TransmitMotion(int performance_counter) {
    __builtin_sthio(&StreamDataMotion.performance_counter, static_cast<uint16_t>(performance_counter));
    1ee4:	00800074 	movhi	r2,1
    1ee8:	1120c32d 	sthio	r4,-31988(r2)
static inline int IMU_SPIM_GetTempData(uint32_t base) {
    return __builtin_ldhio(&((ImuSpiMasterRegisters*)base)->TEMP_DATA);
}

static inline int IMU_SPIM_GetAccelDataX(uint32_t base) {
    return __builtin_ldhio(&((ImuSpiMasterRegisters*)base)->ACCEL_DATA_X);
    1eec:	00b98114 	movui	r2,58884
    1ef0:	10c0002f 	ldhio	r3,0(r2)
    __builtin_sthio(&StreamDataMotion.accelerometer[0], IMU_SPIM_GetAccelDataX(IMU_SPIM_BASE));
    1ef4:	00800074 	movhi	r2,1
    1ef8:	10e0c3ad 	sthio	r3,-31986(r2)
}

static inline int IMU_SPIM_GetAccelDataY(uint32_t base) {
    return __builtin_ldhio(&((ImuSpiMasterRegisters*)base)->ACCEL_DATA_Y);
    1efc:	00b98194 	movui	r2,58886
    1f00:	10c0002f 	ldhio	r3,0(r2)
    __builtin_sthio(&StreamDataMotion.accelerometer[1], IMU_SPIM_GetAccelDataY(IMU_SPIM_BASE));
    1f04:	00800074 	movhi	r2,1
    1f08:	10e0c42d 	sthio	r3,-31984(r2)
}

static inline int IMU_SPIM_GetAccelDataZ(uint32_t base) {
    return __builtin_ldhio(&((ImuSpiMasterRegisters*)base)->ACCEL_DATA_Z);
    1f0c:	00b98214 	movui	r2,58888
    1f10:	10c0002f 	ldhio	r3,0(r2)
    __builtin_sthio(&StreamDataMotion.accelerometer[2], IMU_SPIM_GetAccelDataZ(IMU_SPIM_BASE));
    1f14:	00800074 	movhi	r2,1
    1f18:	10e0c4ad 	sthio	r3,-31982(r2)
}

static inline int IMU_SPIM_GetGyroDataX(uint32_t base) {
    return __builtin_ldhio(&((ImuSpiMasterRegisters*)base)->GYRO_DATA_X);
    1f1c:	00b98294 	movui	r2,58890
    1f20:	10c0002f 	ldhio	r3,0(r2)
    __builtin_sthio(&StreamDataMotion.gyroscope[0], IMU_SPIM_GetGyroDataX(IMU_SPIM_BASE));
    1f24:	00800074 	movhi	r2,1
    1f28:	10e0c52d 	sthio	r3,-31980(r2)
}

static inline int IMU_SPIM_GetGyroDataY(uint32_t base) {
    return __builtin_ldhio(&((ImuSpiMasterRegisters*)base)->GYRO_DATA_Y);
    1f2c:	00b98314 	movui	r2,58892
    1f30:	10c0002f 	ldhio	r3,0(r2)
    __builtin_sthio(&StreamDataMotion.gyroscope[1], IMU_SPIM_GetGyroDataY(IMU_SPIM_BASE));
    1f34:	00800074 	movhi	r2,1
    1f38:	10e0c5ad 	sthio	r3,-31978(r2)
}

static inline int IMU_SPIM_GetGyroDataZ(uint32_t base) {
    return __builtin_ldhio(&((ImuSpiMasterRegisters*)base)->GYRO_DATA_Z);
    1f3c:	00b98394 	movui	r2,58894
    1f40:	10c0002f 	ldhio	r3,0(r2)
    __builtin_sthio(&StreamDataMotion.gyroscope[2], IMU_SPIM_GetGyroDataZ(IMU_SPIM_BASE));
    1f44:	00800074 	movhi	r2,1
    1f48:	10e0c62d 	sthio	r3,-31976(r2)
	}

	static int GetEncoderValue(int number) {
		switch(number){
		case 1:
			return __builtin_ldhio(&reinterpret_cast<Register_t*>(BASE)->ENCODER1);
    1f4c:	00bc0214 	movui	r2,61448
    1f50:	10c0002f 	ldhio	r3,0(r2)
    __builtin_sthio(&StreamDataMotion.encoder_pulse_count[0], VectorController::GetEncoderValue(1));
    1f54:	00800074 	movhi	r2,1
    1f58:	10e0c6ad 	sthio	r3,-31974(r2)
		case 2:
			return __builtin_ldhio(&reinterpret_cast<Register_t*>(BASE)->ENCODER2);
    1f5c:	00bc0294 	movui	r2,61450
    1f60:	10c0002f 	ldhio	r3,0(r2)
    __builtin_sthio(&StreamDataMotion.encoder_pulse_count[1], VectorController::GetEncoderValue(2));
    1f64:	00800074 	movhi	r2,1
    1f68:	10e0c72d 	sthio	r3,-31972(r2)
		case 3:
			return __builtin_ldhio(&reinterpret_cast<Register_t*>(BASE)->ENCODER3);
    1f6c:	00bc0314 	movui	r2,61452
    1f70:	10c0002f 	ldhio	r3,0(r2)
    __builtin_sthio(&StreamDataMotion.encoder_pulse_count[2], VectorController::GetEncoderValue(3));
    1f74:	00800074 	movhi	r2,1
    1f78:	10e0c7ad 	sthio	r3,-31970(r2)
		case 4:
			return __builtin_ldhio(&reinterpret_cast<Register_t*>(BASE)->ENCODER4);
    1f7c:	00bc0394 	movui	r2,61454
    1f80:	10c0002f 	ldhio	r3,0(r2)
    __builtin_sthio(&StreamDataMotion.encoder_pulse_count[3], VectorController::GetEncoderValue(4));
    1f84:	00800074 	movhi	r2,1
    1f88:	10e0c82d 	sthio	r3,-31968(r2)
	}

	static int GetCurrentMeasurementD(int number) {
		switch(number){
		case 1:
			return __builtin_ldhio(&reinterpret_cast<Register_t*>(BASE)->IMEASD1);
    1f8c:	00bc0414 	movui	r2,61456
    1f90:	10c0002f 	ldhio	r3,0(r2)
    __builtin_sthio(&StreamDataMotion.motor_current_d[0], VectorController::GetCurrentMeasurementD(1));
    1f94:	00800074 	movhi	r2,1
    1f98:	10e0c8ad 	sthio	r3,-31966(r2)
		case 2:
			return __builtin_ldhio(&reinterpret_cast<Register_t*>(BASE)->IMEASD2);
    1f9c:	00bc0514 	movui	r2,61460
    1fa0:	10c0002f 	ldhio	r3,0(r2)
    __builtin_sthio(&StreamDataMotion.motor_current_d[1], VectorController::GetCurrentMeasurementD(2));
    1fa4:	00800074 	movhi	r2,1
    1fa8:	10e0c92d 	sthio	r3,-31964(r2)
		case 3:
			return __builtin_ldhio(&reinterpret_cast<Register_t*>(BASE)->IMEASD3);
    1fac:	00bc0614 	movui	r2,61464
    1fb0:	10c0002f 	ldhio	r3,0(r2)
    __builtin_sthio(&StreamDataMotion.motor_current_d[2], VectorController::GetCurrentMeasurementD(3));
    1fb4:	00800074 	movhi	r2,1
    1fb8:	10e0c9ad 	sthio	r3,-31962(r2)
		case 4:
			return __builtin_ldhio(&reinterpret_cast<Register_t*>(BASE)->IMEASD4);
    1fbc:	00bc0714 	movui	r2,61468
    1fc0:	10c0002f 	ldhio	r3,0(r2)
    __builtin_sthio(&StreamDataMotion.motor_current_d[3], VectorController::GetCurrentMeasurementD(4));
    1fc4:	00800074 	movhi	r2,1
    1fc8:	10e0ca2d 	sthio	r3,-31960(r2)
	}

	static int GetCurrentMeasurementQ(int number) {
		switch(number){
		case 1:
			return __builtin_ldhio(&reinterpret_cast<Register_t*>(BASE)->IMEASQ1);
    1fcc:	00bc0494 	movui	r2,61458
    1fd0:	10c0002f 	ldhio	r3,0(r2)
    __builtin_sthio(&StreamDataMotion.motor_current_q[0], VectorController::GetCurrentMeasurementQ(1));
    1fd4:	00800074 	movhi	r2,1
    1fd8:	10e0caad 	sthio	r3,-31958(r2)
		case 2:
			return __builtin_ldhio(&reinterpret_cast<Register_t*>(BASE)->IMEASQ2);
    1fdc:	00bc0594 	movui	r2,61462
    1fe0:	10c0002f 	ldhio	r3,0(r2)
    __builtin_sthio(&StreamDataMotion.motor_current_q[1], VectorController::GetCurrentMeasurementQ(2));
    1fe4:	00800074 	movhi	r2,1
    1fe8:	10e0cb2d 	sthio	r3,-31956(r2)
		case 3:
			return __builtin_ldhio(&reinterpret_cast<Register_t*>(BASE)->IMEASQ3);
    1fec:	00bc0694 	movui	r2,61466
    1ff0:	10c0002f 	ldhio	r3,0(r2)
    __builtin_sthio(&StreamDataMotion.motor_current_q[2], VectorController::GetCurrentMeasurementQ(3));
    1ff4:	00800074 	movhi	r2,1
    1ff8:	10e0cbad 	sthio	r3,-31954(r2)
		case 4:
			return __builtin_ldhio(&reinterpret_cast<Register_t*>(BASE)->IMEASQ4);
    1ffc:	00bc0794 	movui	r2,61470
    2000:	10c0002f 	ldhio	r3,0(r2)
    __builtin_sthio(&StreamDataMotion.motor_current_q[3], VectorController::GetCurrentMeasurementQ(4));
    2004:	00800074 	movhi	r2,1
    2008:	10e0cc2d 	sthio	r3,-31952(r2)
	}

	static int GetCurrentReferenceQ(int number) {
		switch(number){
		case 1:
			return __builtin_ldhio(&reinterpret_cast<Register_t*>(BASE)->IREFQ1);
    200c:	00bc0894 	movui	r2,61474
    2010:	10c0002f 	ldhio	r3,0(r2)
    __builtin_sthio(&StreamDataMotion.motor_current_ref_q[0], VectorController::GetCurrentReferenceQ(1));
    2014:	00800074 	movhi	r2,1
    2018:	10e0ccad 	sthio	r3,-31950(r2)
		case 2:
			return __builtin_ldhio(&reinterpret_cast<Register_t*>(BASE)->IREFQ2);
    201c:	00bc0994 	movui	r2,61478
    2020:	10c0002f 	ldhio	r3,0(r2)
    __builtin_sthio(&StreamDataMotion.motor_current_ref_q[1], VectorController::GetCurrentReferenceQ(2));
    2024:	00800074 	movhi	r2,1
    2028:	10e0cd2d 	sthio	r3,-31948(r2)
		case 3:
			return __builtin_ldhio(&reinterpret_cast<Register_t*>(BASE)->IREFQ3);
    202c:	00bc0a94 	movui	r2,61482
    2030:	10c0002f 	ldhio	r3,0(r2)
    __builtin_sthio(&StreamDataMotion.motor_current_ref_q[2], VectorController::GetCurrentReferenceQ(3));
    2034:	00800074 	movhi	r2,1
    2038:	10e0cdad 	sthio	r3,-31946(r2)
		case 4:
			return __builtin_ldhio(&reinterpret_cast<Register_t*>(BASE)->IREFQ4);
    203c:	00bc0b94 	movui	r2,61486
    2040:	10c0002f 	ldhio	r3,0(r2)
    __builtin_sthio(&StreamDataMotion.motor_current_ref_q[3], VectorController::GetCurrentReferenceQ(4));
    2044:	00800074 	movhi	r2,1
    2048:	10e0ce2d 	sthio	r3,-31944(r2)
        return __builtin_ldhio(&reinterpret_cast<Register_t*>(BASE)->POWER);
    204c:	00bc4194 	movui	r2,61702
    2050:	10c0002f 	ldhio	r3,0(r2)
    __builtin_sthio(&StreamDataMotion.motor_power_5, MotorController::GetPower());
    2054:	00800074 	movhi	r2,1
    2058:	10e0cead 	sthio	r3,-31942(r2)
    StreamDataDesciptorMotion.TransmitAsync(_Device);
    205c:	d1601c17 	ldw	r5,-32656(gp)
    2060:	01000034 	movhi	r4,0
    2064:	2117c704 	addi	r4,r4,24348
    2068:	0001c681 	jmpi	1c68 <_ZNK24MsgdmaTransmitDescriptor13TransmitAsyncEP14alt_msgdma_dev>

0000206c <_ZN15WheelController12StartControlEv>:
#include <peripheral/vector_controller.hpp>
#include "centralized_monitor.hpp"
#include "shared_memory.hpp"
#include <math.h>

void WheelController::StartControl(void) {
    206c:	deffff04 	addi	sp,sp,-4
    2070:	dfc00015 	stw	ra,0(sp)
	static int GetGainP(void) {
		return __builtin_ldhuio(&reinterpret_cast<Register_t*>(BASE)->KP);
	}

	static void SetGainP(int value) {
		__builtin_sthio(&reinterpret_cast<Register_t*>(BASE)->KP, value);
    2074:	00c36b04 	movi	r3,3500
    2078:	00bc0c14 	movui	r2,61488
    207c:	10c0002d 	sthio	r3,0(r2)
	static int GetGainI(void) {
		return __builtin_ldhuio(&reinterpret_cast<Register_t*>(BASE)->KI);
	}

	static void SetGainI(int value) {
		__builtin_sthio(&reinterpret_cast<Register_t*>(BASE)->KI, value);
    2080:	00c07d04 	movi	r3,500
    2084:	00bc0c94 	movui	r2,61490
    2088:	10c0002d 	sthio	r3,0(r2)
		__builtin_sthio(&reinterpret_cast<Register_t*>(BASE)->FAULT, 0x2);
    208c:	00c00084 	movi	r3,2
    2090:	00bc0114 	movui	r2,61444
    2094:	10c0002d 	sthio	r3,0(r2)
			__builtin_sthio(&reinterpret_cast<Register_t*>(BASE)->IREFQ1, value);
    2098:	00bc0894 	movui	r2,61474
    209c:	1000002d 	sthio	zero,0(r2)
			__builtin_sthio(&reinterpret_cast<Register_t*>(BASE)->IREFQ2, value);
    20a0:	00bc0994 	movui	r2,61478
    20a4:	1000002d 	sthio	zero,0(r2)
			__builtin_sthio(&reinterpret_cast<Register_t*>(BASE)->IREFQ3, value);
    20a8:	00bc0a94 	movui	r2,61482
    20ac:	1000002d 	sthio	zero,0(r2)
			__builtin_sthio(&reinterpret_cast<Register_t*>(BASE)->IREFQ4, value);
    20b0:	00bc0b94 	movui	r2,61486
    20b4:	1000002d 	sthio	zero,0(r2)
    VectorController::ClearFault();
    VectorController::SetCurrentReferenceQ(1, 0);
    VectorController::SetCurrentReferenceQ(2, 0);
    VectorController::SetCurrentReferenceQ(3, 0);
    VectorController::SetCurrentReferenceQ(4, 0);
    memset(_LastSpeedError, 0, sizeof(_LastSpeedError));
    20b8:	01000074 	movhi	r4,1
    20bc:	01800404 	movi	r6,16
    20c0:	000b883a 	mov	r5,zero
    20c4:	2120d304 	addi	r4,r4,-31924
    20c8:	00045740 	call	4574 <memset>
    memset(_LastCurrentReference, 0, sizeof(_LastCurrentReference));
    20cc:	01000074 	movhi	r4,1
    20d0:	01800404 	movi	r6,16
    20d4:	000b883a 	mov	r5,zero
    20d8:	2120cf04 	addi	r4,r4,-31940
}
    20dc:	dfc00017 	ldw	ra,0(sp)
    20e0:	dec00104 	addi	sp,sp,4
    memset(_LastCurrentReference, 0, sizeof(_LastCurrentReference));
    20e4:	00045741 	jmpi	4574 <memset>

000020e8 <_ZN15WheelController11StopControlEv>:
		__builtin_sthio(&reinterpret_cast<Register_t*>(BASE)->FAULT, 0x1);
    20e8:	00c00044 	movi	r3,1
    20ec:	00bc0114 	movui	r2,61444
    20f0:	10c0002d 	sthio	r3,0(r2)
			__builtin_sthio(&reinterpret_cast<Register_t*>(BASE)->IREFQ1, value);
    20f4:	00bc0894 	movui	r2,61474
    20f8:	1000002d 	sthio	zero,0(r2)
			__builtin_sthio(&reinterpret_cast<Register_t*>(BASE)->IREFQ2, value);
    20fc:	00bc0994 	movui	r2,61478
    2100:	1000002d 	sthio	zero,0(r2)
			__builtin_sthio(&reinterpret_cast<Register_t*>(BASE)->IREFQ3, value);
    2104:	00bc0a94 	movui	r2,61482
    2108:	1000002d 	sthio	zero,0(r2)
			__builtin_sthio(&reinterpret_cast<Register_t*>(BASE)->IREFQ4, value);
    210c:	00bc0b94 	movui	r2,61486
    2110:	1000002d 	sthio	zero,0(r2)
		__builtin_sthio(&reinterpret_cast<Register_t*>(BASE)->KP, value);
    2114:	00bc0c14 	movui	r2,61488
    2118:	1000002d 	sthio	zero,0(r2)
		__builtin_sthio(&reinterpret_cast<Register_t*>(BASE)->KI, value);
    211c:	00bc0c94 	movui	r2,61490
    2120:	1000002d 	sthio	zero,0(r2)
    VectorController::SetCurrentReferenceQ(2, 0);
    VectorController::SetCurrentReferenceQ(3, 0);
    VectorController::SetCurrentReferenceQ(4, 0);
    VectorController::SetGainP(0);
    VectorController::SetGainI(0);
}
    2124:	f800283a 	ret

00002128 <_ZN15WheelController6UpdateEb>:

void WheelController::Update(bool new_parameters) {
    2128:	defff404 	addi	sp,sp,-48
	    return __builtin_ldhuio(&reinterpret_cast<Register_t*>(BASE)->FAULT) != 0;
    212c:	00bc0114 	movui	r2,61444
    2130:	dfc00b15 	stw	ra,44(sp)
    2134:	dd800a15 	stw	r22,40(sp)
    2138:	dd400915 	stw	r21,36(sp)
    213c:	dd000815 	stw	r20,32(sp)
    2140:	dcc00715 	stw	r19,28(sp)
    2144:	dc800615 	stw	r18,24(sp)
    2148:	dc400515 	stw	r17,20(sp)
    214c:	dc000415 	stw	r16,16(sp)
    2150:	1440002b 	ldhuio	r17,0(r2)
    2154:	8c7fffcc 	andi	r17,r17,65535
    if (VectorController::IsFault() == false) {
    2158:	8800581e 	bne	r17,zero,22bc <_ZN15WheelController6UpdateEb+0x194>
			return __builtin_ldhio(&reinterpret_cast<Register_t*>(BASE)->ENCODER1);
    215c:	00bc0214 	movui	r2,61448
    2160:	1080002f 	ldhio	r2,0(r2)
        int speed_meas_i[4];
        speed_meas_i[0] = VectorController::GetEncoderValue(1);
    2164:	d8800015 	stw	r2,0(sp)
			return __builtin_ldhio(&reinterpret_cast<Register_t*>(BASE)->ENCODER2);
    2168:	00bc0294 	movui	r2,61450
    216c:	1080002f 	ldhio	r2,0(r2)
        speed_meas_i[1] = VectorController::GetEncoderValue(2);
    2170:	d8800115 	stw	r2,4(sp)
			return __builtin_ldhio(&reinterpret_cast<Register_t*>(BASE)->ENCODER3);
    2174:	00bc0314 	movui	r2,61452
    2178:	1080002f 	ldhio	r2,0(r2)
        speed_meas_i[2] = VectorController::GetEncoderValue(3);
    217c:	d8800215 	stw	r2,8(sp)
			return __builtin_ldhio(&reinterpret_cast<Register_t*>(BASE)->ENCODER4);
    2180:	00bc0394 	movui	r2,61454
    2184:	1080002f 	ldhio	r2,0(r2)
        for (int index = 0; index < 4; index++) {
            float speed_ref = SharedMemory::GetParameters().wheel_speed[index];
            if (fabsf(speed_ref) <= MaxSpeedReference) {
                float speed_meas = speed_meas_i[index];
                float error = speed_ref - speed_meas;
                float value_i = _SpeedGainI * error;
    2188:	d5602017 	ldw	r21,-32640(gp)
    218c:	04000074 	movhi	r16,1
                float value_p = _SpeedGainP * (error - _LastSpeedError[index]);
    2190:	d5a02117 	ldw	r22,-32636(gp)
    2194:	04c00074 	movhi	r19,1
    2198:	04800074 	movhi	r18,1
    219c:	8420cf04 	addi	r16,r16,-31940
        speed_meas_i[3] = VectorController::GetEncoderValue(4);
    21a0:	d8800315 	stw	r2,12(sp)
        for (int index = 0; index < 4; index++) {
    21a4:	9ce0bd04 	addi	r19,r19,-32012
    21a8:	94a0d304 	addi	r18,r18,-31924
    21ac:	8029883a 	mov	r20,r16
            float speed_ref = SharedMemory::GetParameters().wheel_speed[index];
    21b0:	98800117 	ldw	r2,4(r19)
            if (fabsf(speed_ref) <= MaxSpeedReference) {
    21b4:	0110b234 	movhi	r4,17096
    21b8:	1007f832 	custom	224,r3,r2,zero
    21bc:	1907f9b2 	custom	230,r3,r3,r4
    21c0:	18003b26 	beq	r3,zero,22b0 <_ZN15WheelController6UpdateEb+0x188>
                float speed_meas = speed_meas_i[index];
    21c4:	dc47883a 	add	r3,sp,r17
    21c8:	19000017 	ldw	r4,0(r3)
                float value_p = _SpeedGainP * (error - _LastSpeedError[index]);
    21cc:	90c00017 	ldw	r3,0(r18)
                _LastSpeedError[index] = error;

                float current_ref = _LastCurrentReference[index];
                current_ref += (value_p + value_i) * 0.0000152587890625f;
                current_ref = fmaxf(-MaxCurrentReference, fminf(current_ref, MaxCurrentReference));
    21d0:	014fc034 	movhi	r5,16128
                float speed_meas = speed_meas_i[index];
    21d4:	2009feb2 	custom	250,r4,r4,zero
                float error = speed_ref - speed_meas;
    21d8:	1105ffb2 	custom	254,r2,r2,r4
                float value_p = _SpeedGainP * (error - _LastSpeedError[index]);
    21dc:	10c7ffb2 	custom	254,r3,r2,r3
                float current_ref = _LastCurrentReference[index];
    21e0:	81000017 	ldw	r4,0(r16)
                float value_p = _SpeedGainP * (error - _LastSpeedError[index]);
    21e4:	1d87ff32 	custom	252,r3,r3,r22
                _LastSpeedError[index] = error;
    21e8:	90800015 	stw	r2,0(r18)
                float value_i = _SpeedGainI * error;
    21ec:	a885ff32 	custom	252,r2,r21,r2
                current_ref += (value_p + value_i) * 0.0000152587890625f;
    21f0:	10c5ff72 	custom	253,r2,r2,r3
    21f4:	00cde034 	movhi	r3,14208
    21f8:	10c5ff32 	custom	252,r2,r2,r3
                current_ref = fmaxf(-MaxCurrentReference, fminf(current_ref, MaxCurrentReference));
    21fc:	1109ff72 	custom	253,r4,r2,r4
    2200:	0003d740 	call	3d74 <fminf>
    2204:	100b883a 	mov	r5,r2
    2208:	012fc034 	movhi	r4,48896
    220c:	0003d180 	call	3d18 <fmaxf>
                _LastCurrentReference[index] = current_ref;
    2210:	80800015 	stw	r2,0(r16)
        for (int index = 0; index < 4; index++) {
    2214:	8c400104 	addi	r17,r17,4
    2218:	88800418 	cmpnei	r2,r17,16
    221c:	9cc00104 	addi	r19,r19,4
    2220:	94800104 	addi	r18,r18,4
    2224:	84000104 	addi	r16,r16,4
    2228:	103fe11e 	bne	r2,zero,21b0 <_ZN15WheelController6UpdateEb+0x88>
            else {
                _LastCurrentReference[index] = 0.0f;
                _LastSpeedError[index] = 0.0f;
            }
        }
        VectorController::SetCurrentReferenceQ(1, static_cast<int>(_LastCurrentReference[0] * 1977.0f));
    222c:	00800074 	movhi	r2,1
    2230:	10e0cf17 	ldw	r3,-31940(r2)
    2234:	00913df4 	movhi	r2,17655
    2238:	10880004 	addi	r2,r2,8192
    223c:	1887ff32 	custom	252,r3,r3,r2
    2240:	1807fe72 	custom	249,r3,r3,zero
			__builtin_sthio(&reinterpret_cast<Register_t*>(BASE)->IREFQ1, value);
    2244:	013c0894 	movui	r4,61474
    2248:	20c0002d 	sthio	r3,0(r4)
        VectorController::SetCurrentReferenceQ(2, static_cast<int>(_LastCurrentReference[1] * 1977.0f));
    224c:	a0c00117 	ldw	r3,4(r20)
			__builtin_sthio(&reinterpret_cast<Register_t*>(BASE)->IREFQ2, value);
    2250:	013c0994 	movui	r4,61478
    2254:	1887ff32 	custom	252,r3,r3,r2
    2258:	1807fe72 	custom	249,r3,r3,zero
    225c:	20c0002d 	sthio	r3,0(r4)
        VectorController::SetCurrentReferenceQ(3, static_cast<int>(_LastCurrentReference[2] * 1977.0f));
    2260:	a0c00217 	ldw	r3,8(r20)
			__builtin_sthio(&reinterpret_cast<Register_t*>(BASE)->IREFQ3, value);
    2264:	013c0a94 	movui	r4,61482
    2268:	1887ff32 	custom	252,r3,r3,r2
    226c:	1807fe72 	custom	249,r3,r3,zero
    2270:	20c0002d 	sthio	r3,0(r4)
        VectorController::SetCurrentReferenceQ(4, static_cast<int>(_LastCurrentReference[3] * 1977.0f));
    2274:	a0c00317 	ldw	r3,12(r20)
    2278:	1885ff32 	custom	252,r2,r3,r2
    227c:	1005fe72 	custom	249,r2,r2,zero
			__builtin_sthio(&reinterpret_cast<Register_t*>(BASE)->IREFQ4, value);
    2280:	00fc0b94 	movui	r3,61486
    2284:	1880002d 	sthio	r2,0(r3)
    }
    else if (new_parameters == true) {
        StartControl();
    }
}
    2288:	dfc00b17 	ldw	ra,44(sp)
    228c:	dd800a17 	ldw	r22,40(sp)
    2290:	dd400917 	ldw	r21,36(sp)
    2294:	dd000817 	ldw	r20,32(sp)
    2298:	dcc00717 	ldw	r19,28(sp)
    229c:	dc800617 	ldw	r18,24(sp)
    22a0:	dc400517 	ldw	r17,20(sp)
    22a4:	dc000417 	ldw	r16,16(sp)
    22a8:	dec00c04 	addi	sp,sp,48
    22ac:	f800283a 	ret
                _LastCurrentReference[index] = 0.0f;
    22b0:	80000015 	stw	zero,0(r16)
                _LastSpeedError[index] = 0.0f;
    22b4:	90000015 	stw	zero,0(r18)
    22b8:	003fd606 	br	2214 <_ZN15WheelController6UpdateEb+0xec>
    else if (new_parameters == true) {
    22bc:	21003fcc 	andi	r4,r4,255
    22c0:	203ff126 	beq	r4,zero,2288 <_ZN15WheelController6UpdateEb+0x160>
}
    22c4:	dfc00b17 	ldw	ra,44(sp)
    22c8:	dd800a17 	ldw	r22,40(sp)
    22cc:	dd400917 	ldw	r21,36(sp)
    22d0:	dd000817 	ldw	r20,32(sp)
    22d4:	dcc00717 	ldw	r19,28(sp)
    22d8:	dc800617 	ldw	r18,24(sp)
    22dc:	dc400517 	ldw	r17,20(sp)
    22e0:	dc000417 	ldw	r16,16(sp)
    22e4:	dec00c04 	addi	sp,sp,48
        StartControl();
    22e8:	000206c1 	jmpi	206c <_ZN15WheelController12StartControlEv>

000022ec <_ZN15WheelController8SetGainsEff>:

void WheelController::SetGains(float kp, float ki) {
    22ec:	defffe04 	addi	sp,sp,-8
    22f0:	dc000015 	stw	r16,0(sp)
    22f4:	2821883a 	mov	r16,r5
     value = (value <= 65535.0f) ? value : 65535.0f;
     return static_cast<int>(value);
     };
     VectorController::SetGainP(clamp(kp));
     VectorController::SetGainI(clamp(ki));*/
    _SpeedGainP = fmaxf(0.0f, fminf(kp, 10000.0f));
    22f8:	01518734 	movhi	r5,17948
    22fc:	29500004 	addi	r5,r5,16384
void WheelController::SetGains(float kp, float ki) {
    2300:	dfc00115 	stw	ra,4(sp)
    _SpeedGainP = fmaxf(0.0f, fminf(kp, 10000.0f));
    2304:	0003d740 	call	3d74 <fminf>
    2308:	100b883a 	mov	r5,r2
    230c:	0009883a 	mov	r4,zero
    2310:	0003d180 	call	3d18 <fmaxf>
    _SpeedGainI = fmaxf(0.0f, fminf(ki, 10000.0f));
    2314:	01518734 	movhi	r5,17948
    2318:	8009883a 	mov	r4,r16
    231c:	29500004 	addi	r5,r5,16384
    _SpeedGainP = fmaxf(0.0f, fminf(kp, 10000.0f));
    2320:	d0a02115 	stw	r2,-32636(gp)
    _SpeedGainI = fmaxf(0.0f, fminf(ki, 10000.0f));
    2324:	0003d740 	call	3d74 <fminf>
    2328:	100b883a 	mov	r5,r2
    232c:	0009883a 	mov	r4,zero
    2330:	0003d180 	call	3d18 <fmaxf>
    2334:	d0a02015 	stw	r2,-32640(gp)
}
    2338:	dfc00117 	ldw	ra,4(sp)
    233c:	dc000017 	ldw	r16,0(sp)
    2340:	dec00204 	addi	sp,sp,8
    2344:	f800283a 	ret

00002348 <_ZN15WheelController8GetGainsEPfS0_>:

void WheelController::GetGains(float *kp, float *ki) {
    //*kp = static_cast<float>(VectorController::GetGainP()) * (1.0f / (1u << VectorController::GainScale));
    //*ki = static_cast<float>(VectorController::GetGainI()) * (1.0f / (1u << VectorController::GainScale));
    if (kp != nullptr) {
    2348:	20000226 	beq	r4,zero,2354 <_ZN15WheelController8GetGainsEPfS0_+0xc>
        *kp = _SpeedGainP;
    234c:	d0a02117 	ldw	r2,-32636(gp)
    2350:	20800015 	stw	r2,0(r4)
    }
    if (ki != nullptr) {
    2354:	28000226 	beq	r5,zero,2360 <_ZN15WheelController8GetGainsEPfS0_+0x18>
        *ki = _SpeedGainI;
    2358:	d0a02017 	ldw	r2,-32640(gp)
    235c:	28800015 	stw	r2,0(r5)
    }
}
    2360:	f800283a 	ret

00002364 <_ZL16get_adjusted_ptrPKSt9type_infoS1_PPv>:
    2364:	28800017 	ldw	r2,0(r5)
    2368:	30c00017 	ldw	r3,0(r6)
    236c:	defffb04 	addi	sp,sp,-20
    2370:	10800217 	ldw	r2,8(r2)
    2374:	dc800315 	stw	r18,12(sp)
    2378:	dc400215 	stw	r17,8(sp)
    237c:	dc000115 	stw	r16,4(sp)
    2380:	dfc00415 	stw	ra,16(sp)
    2384:	2023883a 	mov	r17,r4
    2388:	d8c00015 	stw	r3,0(sp)
    238c:	2809883a 	mov	r4,r5
    2390:	2821883a 	mov	r16,r5
    2394:	3025883a 	mov	r18,r6
    2398:	103ee83a 	callr	r2
    239c:	10803fcc 	andi	r2,r2,255
    23a0:	10000326 	beq	r2,zero,23b0 <_ZL16get_adjusted_ptrPKSt9type_infoS1_PPv+0x4c>
    23a4:	d8800017 	ldw	r2,0(sp)
    23a8:	10800017 	ldw	r2,0(r2)
    23ac:	d8800015 	stw	r2,0(sp)
    23b0:	88800017 	ldw	r2,0(r17)
    23b4:	01c00044 	movi	r7,1
    23b8:	d80d883a 	mov	r6,sp
    23bc:	10800417 	ldw	r2,16(r2)
    23c0:	800b883a 	mov	r5,r16
    23c4:	8809883a 	mov	r4,r17
    23c8:	103ee83a 	callr	r2
    23cc:	10c03fcc 	andi	r3,r2,255
    23d0:	18000226 	beq	r3,zero,23dc <_ZL16get_adjusted_ptrPKSt9type_infoS1_PPv+0x78>
    23d4:	d8c00017 	ldw	r3,0(sp)
    23d8:	90c00015 	stw	r3,0(r18)
    23dc:	dfc00417 	ldw	ra,16(sp)
    23e0:	dc800317 	ldw	r18,12(sp)
    23e4:	dc400217 	ldw	r17,8(sp)
    23e8:	dc000117 	ldw	r16,4(sp)
    23ec:	dec00504 	addi	sp,sp,20
    23f0:	f800283a 	ret

000023f4 <_ZL28read_encoded_value_with_basehjPKhPj>:
    23f4:	20803fcc 	andi	r2,r4,255
    23f8:	10801418 	cmpnei	r2,r2,80
    23fc:	10002c26 	beq	r2,zero,24b0 <_ZL28read_encoded_value_with_basehjPKhPj+0xbc>
    2400:	208003cc 	andi	r2,r4,15
    2404:	10c00368 	cmpgeui	r3,r2,13
    2408:	1800711e 	bne	r3,zero,25d0 <_ZL28read_encoded_value_with_basehjPKhPj+0x1dc>
    240c:	100490ba 	slli	r2,r2,2
    2410:	00c00034 	movhi	r3,0
    2414:	10c7883a 	add	r3,r2,r3
    2418:	18890817 	ldw	r2,9248(r3)
    241c:	1000683a 	jmp	r2
    2420:	00002454 	movui	zero,145
    2424:	00002544 	movi	zero,149
    2428:	00002508 	cmpgei	zero,zero,148
    242c:	00002454 	movui	zero,145
    2430:	000024d8 	cmpnei	zero,zero,147
    2434:	000025d0 	cmplti	zero,zero,151
    2438:	000025d0 	cmplti	zero,zero,151
    243c:	000025d0 	cmplti	zero,zero,151
    2440:	000025d0 	cmplti	zero,zero,151
    2444:	0000257c 	xorhi	zero,zero,149
    2448:	00002520 	cmpeqi	zero,zero,148
    244c:	00002454 	movui	zero,145
    2450:	000024d8 	cmpnei	zero,zero,147
    2454:	32000043 	ldbu	r8,1(r6)
    2458:	30800083 	ldbu	r2,2(r6)
    245c:	30c000c3 	ldbu	r3,3(r6)
    2460:	32400003 	ldbu	r9,0(r6)
    2464:	4010923a 	slli	r8,r8,8
    2468:	1004943a 	slli	r2,r2,16
    246c:	1806963a 	slli	r3,r3,24
    2470:	4250b03a 	or	r8,r8,r9
    2474:	1204b03a 	or	r2,r2,r8
    2478:	1886b03a 	or	r3,r3,r2
    247c:	30800104 	addi	r2,r6,4
    2480:	18000926 	beq	r3,zero,24a8 <_ZL28read_encoded_value_with_basehjPKhPj+0xb4>
    2484:	22001c0c 	andi	r8,r4,112
    2488:	42000418 	cmpnei	r8,r8,16
    248c:	4000011e 	bne	r8,zero,2494 <_ZL28read_encoded_value_with_basehjPKhPj+0xa0>
    2490:	300b883a 	mov	r5,r6
    2494:	21003fcc 	andi	r4,r4,255
    2498:	2100201c 	xori	r4,r4,128
    249c:	213fe004 	addi	r4,r4,-128
    24a0:	1947883a 	add	r3,r3,r5
    24a4:	20000916 	blt	r4,zero,24cc <_ZL28read_encoded_value_with_basehjPKhPj+0xd8>
    24a8:	38c00015 	stw	r3,0(r7)
    24ac:	f800283a 	ret
    24b0:	308000c4 	addi	r2,r6,3
    24b4:	01bfff04 	movi	r6,-4
    24b8:	1184703a 	and	r2,r2,r6
    24bc:	10c00017 	ldw	r3,0(r2)
    24c0:	10800104 	addi	r2,r2,4
    24c4:	38c00015 	stw	r3,0(r7)
    24c8:	f800283a 	ret
    24cc:	18c00017 	ldw	r3,0(r3)
    24d0:	38c00015 	stw	r3,0(r7)
    24d4:	f800283a 	ret
    24d8:	32000043 	ldbu	r8,1(r6)
    24dc:	30800083 	ldbu	r2,2(r6)
    24e0:	30c000c3 	ldbu	r3,3(r6)
    24e4:	32400003 	ldbu	r9,0(r6)
    24e8:	4010923a 	slli	r8,r8,8
    24ec:	1004943a 	slli	r2,r2,16
    24f0:	1806963a 	slli	r3,r3,24
    24f4:	4250b03a 	or	r8,r8,r9
    24f8:	1204b03a 	or	r2,r2,r8
    24fc:	1886b03a 	or	r3,r3,r2
    2500:	30800204 	addi	r2,r6,8
    2504:	003fde06 	br	2480 <_ZL28read_encoded_value_with_basehjPKhPj+0x8c>
    2508:	30c00043 	ldbu	r3,1(r6)
    250c:	32000003 	ldbu	r8,0(r6)
    2510:	30800084 	addi	r2,r6,2
    2514:	1806923a 	slli	r3,r3,8
    2518:	1a06b03a 	or	r3,r3,r8
    251c:	003fd806 	br	2480 <_ZL28read_encoded_value_with_basehjPKhPj+0x8c>
    2520:	30c00043 	ldbu	r3,1(r6)
    2524:	32000003 	ldbu	r8,0(r6)
    2528:	30800084 	addi	r2,r6,2
    252c:	1806923a 	slli	r3,r3,8
    2530:	1a06b03a 	or	r3,r3,r8
    2534:	18ffffcc 	andi	r3,r3,65535
    2538:	18e0001c 	xori	r3,r3,32768
    253c:	18e00004 	addi	r3,r3,-32768
    2540:	003fcf06 	br	2480 <_ZL28read_encoded_value_with_basehjPKhPj+0x8c>
    2544:	3005883a 	mov	r2,r6
    2548:	0007883a 	mov	r3,zero
    254c:	0015883a 	mov	r10,zero
    2550:	12000003 	ldbu	r8,0(r2)
    2554:	10800044 	addi	r2,r2,1
    2558:	42401fcc 	andi	r9,r8,127
    255c:	4a92983a 	sll	r9,r9,r10
    2560:	42003fcc 	andi	r8,r8,255
    2564:	4200201c 	xori	r8,r8,128
    2568:	423fe004 	addi	r8,r8,-128
    256c:	1a46b03a 	or	r3,r3,r9
    2570:	528001c4 	addi	r10,r10,7
    2574:	403ff616 	blt	r8,zero,2550 <_ZL28read_encoded_value_with_basehjPKhPj+0x15c>
    2578:	003fc106 	br	2480 <_ZL28read_encoded_value_with_basehjPKhPj+0x8c>
    257c:	3005883a 	mov	r2,r6
    2580:	0007883a 	mov	r3,zero
    2584:	0013883a 	mov	r9,zero
    2588:	12800003 	ldbu	r10,0(r2)
    258c:	10800044 	addi	r2,r2,1
    2590:	52001fcc 	andi	r8,r10,127
    2594:	4250983a 	sll	r8,r8,r9
    2598:	52c03fcc 	andi	r11,r10,255
    259c:	5ac0201c 	xori	r11,r11,128
    25a0:	5affe004 	addi	r11,r11,-128
    25a4:	1a06b03a 	or	r3,r3,r8
    25a8:	4a4001c4 	addi	r9,r9,7
    25ac:	583ff616 	blt	r11,zero,2588 <_ZL28read_encoded_value_with_basehjPKhPj+0x194>
    25b0:	4a000828 	cmpgeui	r8,r9,32
    25b4:	403fb21e 	bne	r8,zero,2480 <_ZL28read_encoded_value_with_basehjPKhPj+0x8c>
    25b8:	5280100c 	andi	r10,r10,64
    25bc:	503fb026 	beq	r10,zero,2480 <_ZL28read_encoded_value_with_basehjPKhPj+0x8c>
    25c0:	023fffc4 	movi	r8,-1
    25c4:	4252983a 	sll	r9,r8,r9
    25c8:	1a46b03a 	or	r3,r3,r9
    25cc:	003fad06 	br	2484 <_ZL28read_encoded_value_with_basehjPKhPj+0x90>
    25d0:	deffff04 	addi	sp,sp,-4
    25d4:	dfc00015 	stw	ra,0(sp)
    25d8:	00044b40 	call	44b4 <abort>

000025dc <_ZL21base_of_encoded_valuehP15_Unwind_Context>:
    25dc:	20803fcc 	andi	r2,r4,255
    25e0:	10803fe0 	cmpeqi	r2,r2,255
    25e4:	1000161e 	bne	r2,zero,2640 <_ZL21base_of_encoded_valuehP15_Unwind_Context+0x64>
    25e8:	2007883a 	mov	r3,r4
    25ec:	18801c0c 	andi	r2,r3,112
    25f0:	2809883a 	mov	r4,r5
    25f4:	11400c20 	cmpeqi	r5,r2,48
    25f8:	2800131e 	bne	r5,zero,2648 <_ZL21base_of_encoded_valuehP15_Unwind_Context+0x6c>
    25fc:	11400c68 	cmpgeui	r5,r2,49
    2600:	2800031e 	bne	r5,zero,2610 <_ZL21base_of_encoded_valuehP15_Unwind_Context+0x34>
    2604:	11400820 	cmpeqi	r5,r2,32
    2608:	28000426 	beq	r5,zero,261c <_ZL21base_of_encoded_valuehP15_Unwind_Context+0x40>
    260c:	000427c1 	jmpi	427c <_Unwind_GetTextRelBase>
    2610:	10c01020 	cmpeqi	r3,r2,64
    2614:	18000826 	beq	r3,zero,2638 <_ZL21base_of_encoded_valuehP15_Unwind_Context+0x5c>
    2618:	00042641 	jmpi	4264 <_Unwind_GetRegionStart>
    261c:	10800868 	cmpgeui	r2,r2,33
    2620:	1000021e 	bne	r2,zero,262c <_ZL21base_of_encoded_valuehP15_Unwind_Context+0x50>
    2624:	18c0180c 	andi	r3,r3,96
    2628:	18000526 	beq	r3,zero,2640 <_ZL21base_of_encoded_valuehP15_Unwind_Context+0x64>
    262c:	deffff04 	addi	sp,sp,-4
    2630:	dfc00015 	stw	ra,0(sp)
    2634:	00044b40 	call	44b4 <abort>
    2638:	10801420 	cmpeqi	r2,r2,80
    263c:	103ffb26 	beq	r2,zero,262c <_ZL21base_of_encoded_valuehP15_Unwind_Context+0x50>
    2640:	0005883a 	mov	r2,zero
    2644:	f800283a 	ret
    2648:	00042741 	jmpi	4274 <_Unwind_GetDataRelBase>

0000264c <_ZL17parse_lsda_headerP15_Unwind_ContextPKhP16lsda_header_info>:
    264c:	defffb04 	addi	sp,sp,-20
    2650:	dc800215 	stw	r18,8(sp)
    2654:	dc400115 	stw	r17,4(sp)
    2658:	dc000015 	stw	r16,0(sp)
    265c:	dfc00415 	stw	ra,16(sp)
    2660:	dcc00315 	stw	r19,12(sp)
    2664:	2025883a 	mov	r18,r4
    2668:	2821883a 	mov	r16,r5
    266c:	3023883a 	mov	r17,r6
    2670:	20003d26 	beq	r4,zero,2768 <_ZL17parse_lsda_headerP15_Unwind_ContextPKhP16lsda_header_info+0x11c>
    2674:	00042640 	call	4264 <_Unwind_GetRegionStart>
    2678:	88800015 	stw	r2,0(r17)
    267c:	84c00003 	ldbu	r19,0(r16)
    2680:	84000044 	addi	r16,r16,1
    2684:	98c03fe0 	cmpeqi	r3,r19,255
    2688:	18002d26 	beq	r3,zero,2740 <_ZL17parse_lsda_headerP15_Unwind_ContextPKhP16lsda_header_info+0xf4>
    268c:	88800115 	stw	r2,4(r17)
    2690:	81000003 	ldbu	r4,0(r16)
    2694:	80800044 	addi	r2,r16,1
    2698:	20c03fcc 	andi	r3,r4,255
    269c:	89000505 	stb	r4,20(r17)
    26a0:	18c03fe0 	cmpeqi	r3,r3,255
    26a4:	1800321e 	bne	r3,zero,2770 <_ZL17parse_lsda_headerP15_Unwind_ContextPKhP16lsda_header_info+0x124>
    26a8:	000d883a 	mov	r6,zero
    26ac:	000b883a 	mov	r5,zero
    26b0:	10c00003 	ldbu	r3,0(r2)
    26b4:	10800044 	addi	r2,r2,1
    26b8:	19001fcc 	andi	r4,r3,127
    26bc:	2148983a 	sll	r4,r4,r5
    26c0:	18c03fcc 	andi	r3,r3,255
    26c4:	18c0201c 	xori	r3,r3,128
    26c8:	18ffe004 	addi	r3,r3,-128
    26cc:	310cb03a 	or	r6,r6,r4
    26d0:	294001c4 	addi	r5,r5,7
    26d4:	183ff616 	blt	r3,zero,26b0 <_ZL17parse_lsda_headerP15_Unwind_ContextPKhP16lsda_header_info+0x64>
    26d8:	118d883a 	add	r6,r2,r6
    26dc:	89800315 	stw	r6,12(r17)
    26e0:	10c00003 	ldbu	r3,0(r2)
    26e4:	000f883a 	mov	r7,zero
    26e8:	10800044 	addi	r2,r2,1
    26ec:	88c00545 	stb	r3,21(r17)
    26f0:	000b883a 	mov	r5,zero
    26f4:	10c00003 	ldbu	r3,0(r2)
    26f8:	10800044 	addi	r2,r2,1
    26fc:	19001fcc 	andi	r4,r3,127
    2700:	2148983a 	sll	r4,r4,r5
    2704:	18c03fcc 	andi	r3,r3,255
    2708:	18c0201c 	xori	r3,r3,128
    270c:	18ffe004 	addi	r3,r3,-128
    2710:	390eb03a 	or	r7,r7,r4
    2714:	294001c4 	addi	r5,r5,7
    2718:	183ff616 	blt	r3,zero,26f4 <_ZL17parse_lsda_headerP15_Unwind_ContextPKhP16lsda_header_info+0xa8>
    271c:	11cf883a 	add	r7,r2,r7
    2720:	89c00415 	stw	r7,16(r17)
    2724:	dfc00417 	ldw	ra,16(sp)
    2728:	dcc00317 	ldw	r19,12(sp)
    272c:	dc800217 	ldw	r18,8(sp)
    2730:	dc400117 	ldw	r17,4(sp)
    2734:	dc000017 	ldw	r16,0(sp)
    2738:	dec00504 	addi	sp,sp,20
    273c:	f800283a 	ret
    2740:	900b883a 	mov	r5,r18
    2744:	9809883a 	mov	r4,r19
    2748:	00025dc0 	call	25dc <_ZL21base_of_encoded_valuehP15_Unwind_Context>
    274c:	800d883a 	mov	r6,r16
    2750:	89c00104 	addi	r7,r17,4
    2754:	100b883a 	mov	r5,r2
    2758:	9809883a 	mov	r4,r19
    275c:	00023f40 	call	23f4 <_ZL28read_encoded_value_with_basehjPKhPj>
    2760:	1021883a 	mov	r16,r2
    2764:	003fca06 	br	2690 <_ZL17parse_lsda_headerP15_Unwind_ContextPKhP16lsda_header_info+0x44>
    2768:	0005883a 	mov	r2,zero
    276c:	003fc206 	br	2678 <_ZL17parse_lsda_headerP15_Unwind_ContextPKhP16lsda_header_info+0x2c>
    2770:	88000315 	stw	zero,12(r17)
    2774:	003fda06 	br	26e0 <_ZL17parse_lsda_headerP15_Unwind_ContextPKhP16lsda_header_info+0x94>

00002778 <_ZL20check_exception_specP16lsda_header_infoPKSt9type_infoPvl>:
    2778:	defffa04 	addi	sp,sp,-24
    277c:	dc000215 	stw	r16,8(sp)
    2780:	24000317 	ldw	r16,12(r4)
    2784:	01ce303a 	nor	r7,zero,r7
    2788:	dc800415 	stw	r18,16(sp)
    278c:	dc400315 	stw	r17,12(sp)
    2790:	dfc00515 	stw	ra,20(sp)
    2794:	2025883a 	mov	r18,r4
    2798:	2823883a 	mov	r17,r5
    279c:	d9800015 	stw	r6,0(sp)
    27a0:	81e1883a 	add	r16,r16,r7
    27a4:	000f883a 	mov	r7,zero
    27a8:	000d883a 	mov	r6,zero
    27ac:	80800003 	ldbu	r2,0(r16)
    27b0:	84000044 	addi	r16,r16,1
    27b4:	10c01fcc 	andi	r3,r2,127
    27b8:	1986983a 	sll	r3,r3,r6
    27bc:	10803fcc 	andi	r2,r2,255
    27c0:	1080201c 	xori	r2,r2,128
    27c4:	10bfe004 	addi	r2,r2,-128
    27c8:	38ceb03a 	or	r7,r7,r3
    27cc:	318001c4 	addi	r6,r6,7
    27d0:	103ff616 	blt	r2,zero,27ac <_ZL20check_exception_specP16lsda_header_infoPKSt9type_infoPvl+0x34>
    27d4:	38002926 	beq	r7,zero,287c <_ZL20check_exception_specP16lsda_header_infoPKSt9type_infoPvl+0x104>
    27d8:	90800503 	ldbu	r2,20(r18)
    27dc:	11003fcc 	andi	r4,r2,255
    27e0:	20c03fe0 	cmpeqi	r3,r4,255
    27e4:	1800231e 	bne	r3,zero,2874 <_ZL20check_exception_specP16lsda_header_infoPKSt9type_infoPvl+0xfc>
    27e8:	108001cc 	andi	r2,r2,7
    27ec:	10c000a0 	cmpeqi	r3,r2,2
    27f0:	18001d1e 	bne	r3,zero,2868 <_ZL20check_exception_specP16lsda_header_infoPKSt9type_infoPvl+0xf0>
    27f4:	10c000e8 	cmpgeui	r3,r2,3
    27f8:	18001726 	beq	r3,zero,2858 <_ZL20check_exception_specP16lsda_header_infoPKSt9type_infoPvl+0xe0>
    27fc:	10c000e0 	cmpeqi	r3,r2,3
    2800:	1800161e 	bne	r3,zero,285c <_ZL20check_exception_specP16lsda_header_infoPKSt9type_infoPvl+0xe4>
    2804:	10800120 	cmpeqi	r2,r2,4
    2808:	10001e26 	beq	r2,zero,2884 <_ZL20check_exception_specP16lsda_header_infoPKSt9type_infoPvl+0x10c>
    280c:	380e90fa 	slli	r7,r7,3
    2810:	01c5c83a 	sub	r2,zero,r7
    2814:	91800317 	ldw	r6,12(r18)
    2818:	91400217 	ldw	r5,8(r18)
    281c:	d9c00104 	addi	r7,sp,4
    2820:	308d883a 	add	r6,r6,r2
    2824:	00023f40 	call	23f4 <_ZL28read_encoded_value_with_basehjPKhPj>
    2828:	d9000117 	ldw	r4,4(sp)
    282c:	d80d883a 	mov	r6,sp
    2830:	880b883a 	mov	r5,r17
    2834:	00023640 	call	2364 <_ZL16get_adjusted_ptrPKSt9type_infoS1_PPv>
    2838:	10c03fcc 	andi	r3,r2,255
    283c:	183fd926 	beq	r3,zero,27a4 <_ZL20check_exception_specP16lsda_header_infoPKSt9type_infoPvl+0x2c>
    2840:	dfc00517 	ldw	ra,20(sp)
    2844:	dc800417 	ldw	r18,16(sp)
    2848:	dc400317 	ldw	r17,12(sp)
    284c:	dc000217 	ldw	r16,8(sp)
    2850:	dec00604 	addi	sp,sp,24
    2854:	f800283a 	ret
    2858:	10000a1e 	bne	r2,zero,2884 <_ZL20check_exception_specP16lsda_header_infoPKSt9type_infoPvl+0x10c>
    285c:	380e90ba 	slli	r7,r7,2
    2860:	01c5c83a 	sub	r2,zero,r7
    2864:	003feb06 	br	2814 <_ZL20check_exception_specP16lsda_header_infoPKSt9type_infoPvl+0x9c>
    2868:	39cf883a 	add	r7,r7,r7
    286c:	01c5c83a 	sub	r2,zero,r7
    2870:	003fe806 	br	2814 <_ZL20check_exception_specP16lsda_header_infoPKSt9type_infoPvl+0x9c>
    2874:	0005883a 	mov	r2,zero
    2878:	003fe606 	br	2814 <_ZL20check_exception_specP16lsda_header_infoPKSt9type_infoPvl+0x9c>
    287c:	0005883a 	mov	r2,zero
    2880:	003fef06 	br	2840 <_ZL20check_exception_specP16lsda_header_infoPKSt9type_infoPvl+0xc8>
    2884:	00044b40 	call	44b4 <abort>

00002888 <__gxx_personality_sj0>:
    2888:	deffdb04 	addi	sp,sp,-148
    288c:	02000034 	movhi	r8,0
    2890:	00c00034 	movhi	r3,0
    2894:	00800034 	movhi	r2,0
    2898:	108bbf04 	addi	r2,r2,12028
    289c:	d9000015 	stw	r4,0(sp)
    28a0:	420a2204 	addi	r8,r8,10376
    28a4:	18d73704 	addi	r3,r3,23772
    28a8:	d9000d04 	addi	r4,sp,52
    28ac:	d8801615 	stw	r2,88(sp)
    28b0:	dfc02415 	stw	ra,144(sp)
    28b4:	df002315 	stw	fp,140(sp)
    28b8:	d9400315 	stw	r5,12(sp)
    28bc:	d9800115 	stw	r6,4(sp)
    28c0:	d9c00215 	stw	r7,8(sp)
    28c4:	da001315 	stw	r8,76(sp)
    28c8:	d8c01415 	stw	r3,80(sp)
    28cc:	df001515 	stw	fp,84(sp)
    28d0:	dec01715 	stw	sp,92(sp)
    28d4:	00041a80 	call	41a8 <_Unwind_SjLj_Register>
    28d8:	d8800017 	ldw	r2,0(sp)
    28dc:	d8001a15 	stw	zero,104(sp)
    28e0:	d8001b15 	stw	zero,108(sp)
    28e4:	10800058 	cmpnei	r2,r2,1
    28e8:	1000471e 	bne	r2,zero,2a08 <__gxx_personality_sj0+0x180>
    28ec:	d9800117 	ldw	r6,4(sp)
    28f0:	00af3574 	movhi	r2,48341
    28f4:	10b54004 	addi	r2,r2,-11008
    28f8:	3085883a 	add	r2,r6,r2
    28fc:	d8800715 	stw	r2,28(sp)
    2900:	1185803a 	cmpltu	r2,r2,r6
    2904:	d9800217 	ldw	r6,8(sp)
    2908:	00ee2cb4 	movhi	r3,47282
    290c:	d9000317 	ldw	r4,12(sp)
    2910:	18eaaf04 	addi	r3,r3,-21828
    2914:	30c7883a 	add	r3,r6,r3
    2918:	10c7883a 	add	r3,r2,r3
    291c:	21000198 	cmpnei	r4,r4,6
    2920:	d8c00615 	stw	r3,24(sp)
    2924:	2000011e 	bne	r4,zero,292c <__gxx_personality_sj0+0xa4>
    2928:	1800d026 	beq	r3,zero,2c6c <__gxx_personality_sj0+0x3e4>
    292c:	d9002617 	ldw	r4,152(sp)
    2930:	00bfffc4 	movi	r2,-1
    2934:	d8800e15 	stw	r2,56(sp)
    2938:	00042580 	call	4258 <_Unwind_GetLanguageSpecificData>
    293c:	d8800515 	stw	r2,20(sp)
    2940:	10005d26 	beq	r2,zero,2ab8 <__gxx_personality_sj0+0x230>
    2944:	d9400517 	ldw	r5,20(sp)
    2948:	d9002617 	ldw	r4,152(sp)
    294c:	d9801d04 	addi	r6,sp,116
    2950:	00bfffc4 	movi	r2,-1
    2954:	d8800e15 	stw	r2,56(sp)
    2958:	000264c0 	call	264c <_ZL17parse_lsda_headerP15_Unwind_ContextPKhP16lsda_header_info>
    295c:	d9002203 	ldbu	r4,136(sp)
    2960:	d9402617 	ldw	r5,152(sp)
    2964:	d8800015 	stw	r2,0(sp)
    2968:	00025dc0 	call	25dc <_ZL21base_of_encoded_valuehP15_Unwind_Context>
    296c:	d9002617 	ldw	r4,152(sp)
    2970:	d9401b04 	addi	r5,sp,108
    2974:	d8801f15 	stw	r2,124(sp)
    2978:	00042280 	call	4228 <_Unwind_GetIPInfo>
    297c:	d8c01b17 	ldw	r3,108(sp)
    2980:	d8800115 	stw	r2,4(sp)
    2984:	18004f26 	beq	r3,zero,2ac4 <__gxx_personality_sj0+0x23c>
    2988:	d8800117 	ldw	r2,4(sp)
    298c:	10004a16 	blt	r2,zero,2ab8 <__gxx_personality_sj0+0x230>
    2990:	1000381e 	bne	r2,zero,2a74 <__gxx_personality_sj0+0x1ec>
    2994:	d8000415 	stw	zero,16(sp)
    2998:	d8000215 	stw	zero,8(sp)
    299c:	00800044 	movi	r2,1
    29a0:	d8c00317 	ldw	r3,12(sp)
    29a4:	18c0004c 	andi	r3,r3,1
    29a8:	1801061e 	bne	r3,zero,2dc4 <__gxx_personality_sj0+0x53c>
    29ac:	d8c00317 	ldw	r3,12(sp)
    29b0:	18c0020c 	andi	r3,r3,8
    29b4:	18010a26 	beq	r3,zero,2de0 <__gxx_personality_sj0+0x558>
    29b8:	10800058 	cmpnei	r2,r2,1
    29bc:	10015126 	beq	r2,zero,2f04 <__gxx_personality_sj0+0x67c>
    29c0:	d8800417 	ldw	r2,16(sp)
    29c4:	10014a16 	blt	r2,zero,2ef0 <__gxx_personality_sj0+0x668>
    29c8:	d9002617 	ldw	r4,152(sp)
    29cc:	d9802517 	ldw	r6,148(sp)
    29d0:	00bfffc4 	movi	r2,-1
    29d4:	000b883a 	mov	r5,zero
    29d8:	d8800e15 	stw	r2,56(sp)
    29dc:	00042000 	call	4200 <_Unwind_SetGR>
    29e0:	d9800417 	ldw	r6,16(sp)
    29e4:	d9002617 	ldw	r4,152(sp)
    29e8:	01400044 	movi	r5,1
    29ec:	00042000 	call	4200 <_Unwind_SetGR>
    29f0:	d9400117 	ldw	r5,4(sp)
    29f4:	d9002617 	ldw	r4,152(sp)
    29f8:	00042480 	call	4248 <_Unwind_SetIP>
    29fc:	008001c4 	movi	r2,7
    2a00:	d8800015 	stw	r2,0(sp)
    2a04:	00000206 	br	2a10 <__gxx_personality_sj0+0x188>
    2a08:	008000c4 	movi	r2,3
    2a0c:	d8800015 	stw	r2,0(sp)
    2a10:	d9000d04 	addi	r4,sp,52
    2a14:	00041c00 	call	41c0 <_Unwind_SjLj_Unregister>
    2a18:	d8800017 	ldw	r2,0(sp)
    2a1c:	dfc02417 	ldw	ra,144(sp)
    2a20:	df002317 	ldw	fp,140(sp)
    2a24:	dec02504 	addi	sp,sp,148
    2a28:	f800283a 	ret
    2a2c:	000b883a 	mov	r5,zero
    2a30:	0009883a 	mov	r4,zero
    2a34:	d8c00017 	ldw	r3,0(sp)
    2a38:	18800003 	ldbu	r2,0(r3)
    2a3c:	18c00044 	addi	r3,r3,1
    2a40:	d8c00015 	stw	r3,0(sp)
    2a44:	10c01fcc 	andi	r3,r2,127
    2a48:	1906983a 	sll	r3,r3,r4
    2a4c:	10803fcc 	andi	r2,r2,255
    2a50:	1080201c 	xori	r2,r2,128
    2a54:	10bfe004 	addi	r2,r2,-128
    2a58:	28cab03a 	or	r5,r5,r3
    2a5c:	210001c4 	addi	r4,r4,7
    2a60:	103ff416 	blt	r2,zero,2a34 <__gxx_personality_sj0+0x1ac>
    2a64:	d8800117 	ldw	r2,4(sp)
    2a68:	10bfffc4 	addi	r2,r2,-1
    2a6c:	d8800115 	stw	r2,4(sp)
    2a70:	10001726 	beq	r2,zero,2ad0 <__gxx_personality_sj0+0x248>
    2a74:	000d883a 	mov	r6,zero
    2a78:	0009883a 	mov	r4,zero
    2a7c:	d8c00017 	ldw	r3,0(sp)
    2a80:	18800003 	ldbu	r2,0(r3)
    2a84:	18c00044 	addi	r3,r3,1
    2a88:	d8c00015 	stw	r3,0(sp)
    2a8c:	10c01fcc 	andi	r3,r2,127
    2a90:	1906983a 	sll	r3,r3,r4
    2a94:	10803fcc 	andi	r2,r2,255
    2a98:	1080201c 	xori	r2,r2,128
    2a9c:	10bfe004 	addi	r2,r2,-128
    2aa0:	30ccb03a 	or	r6,r6,r3
    2aa4:	210001c4 	addi	r4,r4,7
    2aa8:	103ff416 	blt	r2,zero,2a7c <__gxx_personality_sj0+0x1f4>
    2aac:	003fdf06 	br	2a2c <__gxx_personality_sj0+0x1a4>
    2ab0:	d88008c3 	ldbu	r2,35(sp)
    2ab4:	10008c1e 	bne	r2,zero,2ce8 <__gxx_personality_sj0+0x460>
    2ab8:	00800204 	movi	r2,8
    2abc:	d8800015 	stw	r2,0(sp)
    2ac0:	003fd306 	br	2a10 <__gxx_personality_sj0+0x188>
    2ac4:	10bfffc4 	addi	r2,r2,-1
    2ac8:	d8800115 	stw	r2,4(sp)
    2acc:	003fae06 	br	2988 <__gxx_personality_sj0+0x100>
    2ad0:	30800044 	addi	r2,r6,1
    2ad4:	d8800a15 	stw	r2,40(sp)
    2ad8:	283ff626 	beq	r5,zero,2ab4 <__gxx_personality_sj0+0x22c>
    2adc:	d8800a17 	ldw	r2,40(sp)
    2ae0:	103ff526 	beq	r2,zero,2ab8 <__gxx_personality_sj0+0x230>
    2ae4:	d8802117 	ldw	r2,132(sp)
    2ae8:	297fffc4 	addi	r5,r5,-1
    2aec:	1145883a 	add	r2,r2,r5
    2af0:	d8800215 	stw	r2,8(sp)
    2af4:	10007c26 	beq	r2,zero,2ce8 <__gxx_personality_sj0+0x460>
    2af8:	d8800317 	ldw	r2,12(sp)
    2afc:	1080020c 	andi	r2,r2,8
    2b00:	d8800b15 	stw	r2,44(sp)
    2b04:	1000bf1e 	bne	r2,zero,2e04 <__gxx_personality_sj0+0x57c>
    2b08:	d8800617 	ldw	r2,24(sp)
    2b0c:	1000e526 	beq	r2,zero,2ea4 <__gxx_personality_sj0+0x61c>
    2b10:	00800074 	movhi	r2,1
    2b14:	10a09704 	addi	r2,r2,-32164
    2b18:	d8800915 	stw	r2,36(sp)
    2b1c:	d8800717 	ldw	r2,28(sp)
    2b20:	d80008c5 	stb	zero,35(sp)
    2b24:	108000a8 	cmpgeui	r2,r2,2
    2b28:	d8800c15 	stw	r2,48(sp)
    2b2c:	d8800217 	ldw	r2,8(sp)
    2b30:	000f883a 	mov	r7,zero
    2b34:	0007883a 	mov	r3,zero
    2b38:	d8800015 	stw	r2,0(sp)
    2b3c:	d8800017 	ldw	r2,0(sp)
    2b40:	11000003 	ldbu	r4,0(r2)
    2b44:	10800044 	addi	r2,r2,1
    2b48:	d8800015 	stw	r2,0(sp)
    2b4c:	20801fcc 	andi	r2,r4,127
    2b50:	10c4983a 	sll	r2,r2,r3
    2b54:	21403fcc 	andi	r5,r4,255
    2b58:	2940201c 	xori	r5,r5,128
    2b5c:	297fe004 	addi	r5,r5,-128
    2b60:	388eb03a 	or	r7,r7,r2
    2b64:	18c001c4 	addi	r3,r3,7
    2b68:	283ff416 	blt	r5,zero,2b3c <__gxx_personality_sj0+0x2b4>
    2b6c:	18800828 	cmpgeui	r2,r3,32
    2b70:	1000061e 	bne	r2,zero,2b8c <__gxx_personality_sj0+0x304>
    2b74:	2100100c 	andi	r4,r4,64
    2b78:	20000426 	beq	r4,zero,2b8c <__gxx_personality_sj0+0x304>
    2b7c:	00800044 	movi	r2,1
    2b80:	10c6983a 	sll	r3,r2,r3
    2b84:	00c7c83a 	sub	r3,zero,r3
    2b88:	38ceb03a 	or	r7,r7,r3
    2b8c:	d9400017 	ldw	r5,0(sp)
    2b90:	d9c00415 	stw	r7,16(sp)
    2b94:	d8000115 	stw	zero,4(sp)
    2b98:	0007883a 	mov	r3,zero
    2b9c:	29000003 	ldbu	r4,0(r5)
    2ba0:	da000117 	ldw	r8,4(sp)
    2ba4:	29400044 	addi	r5,r5,1
    2ba8:	20801fcc 	andi	r2,r4,127
    2bac:	10c4983a 	sll	r2,r2,r3
    2bb0:	21803fcc 	andi	r6,r4,255
    2bb4:	3180201c 	xori	r6,r6,128
    2bb8:	4084b03a 	or	r2,r8,r2
    2bbc:	31bfe004 	addi	r6,r6,-128
    2bc0:	d8800115 	stw	r2,4(sp)
    2bc4:	18c001c4 	addi	r3,r3,7
    2bc8:	303ff416 	blt	r6,zero,2b9c <__gxx_personality_sj0+0x314>
    2bcc:	18800828 	cmpgeui	r2,r3,32
    2bd0:	1000081e 	bne	r2,zero,2bf4 <__gxx_personality_sj0+0x36c>
    2bd4:	2100100c 	andi	r4,r4,64
    2bd8:	20000626 	beq	r4,zero,2bf4 <__gxx_personality_sj0+0x36c>
    2bdc:	00800044 	movi	r2,1
    2be0:	10c6983a 	sll	r3,r2,r3
    2be4:	d8800117 	ldw	r2,4(sp)
    2be8:	00c7c83a 	sub	r3,zero,r3
    2bec:	10c4b03a 	or	r2,r2,r3
    2bf0:	d8800115 	stw	r2,4(sp)
    2bf4:	38004726 	beq	r7,zero,2d14 <__gxx_personality_sj0+0x48c>
    2bf8:	01c04916 	blt	zero,r7,2d20 <__gxx_personality_sj0+0x498>
    2bfc:	d8800917 	ldw	r2,36(sp)
    2c00:	10000426 	beq	r2,zero,2c14 <__gxx_personality_sj0+0x38c>
    2c04:	d8800b17 	ldw	r2,44(sp)
    2c08:	1000021e 	bne	r2,zero,2c14 <__gxx_personality_sj0+0x38c>
    2c0c:	d8800617 	ldw	r2,24(sp)
    2c10:	10008026 	beq	r2,zero,2e14 <__gxx_personality_sj0+0x58c>
    2c14:	d8802017 	ldw	r2,128(sp)
    2c18:	01ce303a 	nor	r7,zero,r7
    2c1c:	000b883a 	mov	r5,zero
    2c20:	11cf883a 	add	r7,r2,r7
    2c24:	0009883a 	mov	r4,zero
    2c28:	38800003 	ldbu	r2,0(r7)
    2c2c:	39c00044 	addi	r7,r7,1
    2c30:	10c01fcc 	andi	r3,r2,127
    2c34:	1906983a 	sll	r3,r3,r4
    2c38:	10803fcc 	andi	r2,r2,255
    2c3c:	1080201c 	xori	r2,r2,128
    2c40:	10bfe004 	addi	r2,r2,-128
    2c44:	28cab03a 	or	r5,r5,r3
    2c48:	210001c4 	addi	r4,r4,7
    2c4c:	103ff616 	blt	r2,zero,2c28 <__gxx_personality_sj0+0x3a0>
    2c50:	28005126 	beq	r5,zero,2d98 <__gxx_personality_sj0+0x510>
    2c54:	d8800117 	ldw	r2,4(sp)
    2c58:	103f9526 	beq	r2,zero,2ab0 <__gxx_personality_sj0+0x228>
    2c5c:	d8c00017 	ldw	r3,0(sp)
    2c60:	1885883a 	add	r2,r3,r2
    2c64:	d8800215 	stw	r2,8(sp)
    2c68:	003fb006 	br	2b2c <__gxx_personality_sj0+0x2a4>
    2c6c:	d8800717 	ldw	r2,28(sp)
    2c70:	108000a8 	cmpgeui	r2,r2,2
    2c74:	103f2d1e 	bne	r2,zero,292c <__gxx_personality_sj0+0xa4>
    2c78:	d8802517 	ldw	r2,148(sp)
    2c7c:	10bffe17 	ldw	r2,-8(r2)
    2c80:	d8800115 	stw	r2,4(sp)
    2c84:	10005d26 	beq	r2,zero,2dfc <__gxx_personality_sj0+0x574>
    2c88:	d8802517 	ldw	r2,148(sp)
    2c8c:	10bffb17 	ldw	r2,-20(r2)
    2c90:	d8800415 	stw	r2,16(sp)
    2c94:	d8802517 	ldw	r2,148(sp)
    2c98:	10bffd17 	ldw	r2,-12(r2)
    2c9c:	d8800515 	stw	r2,20(sp)
    2ca0:	d8800417 	ldw	r2,16(sp)
    2ca4:	103f480e 	bge	r2,zero,29c8 <__gxx_personality_sj0+0x140>
    2ca8:	d9002617 	ldw	r4,152(sp)
    2cac:	d9400517 	ldw	r5,20(sp)
    2cb0:	d9801d04 	addi	r6,sp,116
    2cb4:	00bfffc4 	movi	r2,-1
    2cb8:	d8800e15 	stw	r2,56(sp)
    2cbc:	000264c0 	call	264c <_ZL17parse_lsda_headerP15_Unwind_ContextPKhP16lsda_header_info>
    2cc0:	d9402617 	ldw	r5,152(sp)
    2cc4:	d9002203 	ldbu	r4,136(sp)
    2cc8:	00025dc0 	call	25dc <_ZL21base_of_encoded_valuehP15_Unwind_Context>
    2ccc:	d9002203 	ldbu	r4,136(sp)
    2cd0:	d9402617 	ldw	r5,152(sp)
    2cd4:	d8801f15 	stw	r2,124(sp)
    2cd8:	00025dc0 	call	25dc <_ZL21base_of_encoded_valuehP15_Unwind_Context>
    2cdc:	d8c02517 	ldw	r3,148(sp)
    2ce0:	18bffe15 	stw	r2,-8(r3)
    2ce4:	003f3806 	br	29c8 <__gxx_personality_sj0+0x140>
    2ce8:	d8800317 	ldw	r2,12(sp)
    2cec:	1080004c 	andi	r2,r2,1
    2cf0:	103f711e 	bne	r2,zero,2ab8 <__gxx_personality_sj0+0x230>
    2cf4:	d8800317 	ldw	r2,12(sp)
    2cf8:	1080020c 	andi	r2,r2,8
    2cfc:	d8800415 	stw	r2,16(sp)
    2d00:	10008126 	beq	r2,zero,2f08 <__gxx_personality_sj0+0x680>
    2d04:	d8800a17 	ldw	r2,40(sp)
    2d08:	d8000415 	stw	zero,16(sp)
    2d0c:	d8800115 	stw	r2,4(sp)
    2d10:	003f2d06 	br	29c8 <__gxx_personality_sj0+0x140>
    2d14:	00800044 	movi	r2,1
    2d18:	d88008c5 	stb	r2,35(sp)
    2d1c:	003fcd06 	br	2c54 <__gxx_personality_sj0+0x3cc>
    2d20:	d8802203 	ldbu	r2,136(sp)
    2d24:	11003fcc 	andi	r4,r2,255
    2d28:	20c03fe0 	cmpeqi	r3,r4,255
    2d2c:	18002a1e 	bne	r3,zero,2dd8 <__gxx_personality_sj0+0x550>
    2d30:	108001cc 	andi	r2,r2,7
    2d34:	10c000a0 	cmpeqi	r3,r2,2
    2d38:	18001f1e 	bne	r3,zero,2db8 <__gxx_personality_sj0+0x530>
    2d3c:	10c000e8 	cmpgeui	r3,r2,3
    2d40:	18001926 	beq	r3,zero,2da8 <__gxx_personality_sj0+0x520>
    2d44:	10c000e0 	cmpeqi	r3,r2,3
    2d48:	1800181e 	bne	r3,zero,2dac <__gxx_personality_sj0+0x524>
    2d4c:	10800120 	cmpeqi	r2,r2,4
    2d50:	10007026 	beq	r2,zero,2f14 <__gxx_personality_sj0+0x68c>
    2d54:	380490fa 	slli	r2,r7,3
    2d58:	0085c83a 	sub	r2,zero,r2
    2d5c:	d9802017 	ldw	r6,128(sp)
    2d60:	d9401f17 	ldw	r5,124(sp)
    2d64:	d9c01c04 	addi	r7,sp,112
    2d68:	308d883a 	add	r6,r6,r2
    2d6c:	00bfffc4 	movi	r2,-1
    2d70:	d8800e15 	stw	r2,56(sp)
    2d74:	00023f40 	call	23f4 <_ZL28read_encoded_value_with_basehjPKhPj>
    2d78:	d9001c17 	ldw	r4,112(sp)
    2d7c:	20000626 	beq	r4,zero,2d98 <__gxx_personality_sj0+0x510>
    2d80:	d9400917 	ldw	r5,36(sp)
    2d84:	283fb326 	beq	r5,zero,2c54 <__gxx_personality_sj0+0x3cc>
    2d88:	d9801a04 	addi	r6,sp,104
    2d8c:	00023640 	call	2364 <_ZL16get_adjusted_ptrPKSt9type_infoS1_PPv>
    2d90:	10803fcc 	andi	r2,r2,255
    2d94:	103faf26 	beq	r2,zero,2c54 <__gxx_personality_sj0+0x3cc>
    2d98:	d8800a17 	ldw	r2,40(sp)
    2d9c:	d8800115 	stw	r2,4(sp)
    2da0:	008000c4 	movi	r2,3
    2da4:	003efe06 	br	29a0 <__gxx_personality_sj0+0x118>
    2da8:	10005a1e 	bne	r2,zero,2f14 <__gxx_personality_sj0+0x68c>
    2dac:	380490ba 	slli	r2,r7,2
    2db0:	0085c83a 	sub	r2,zero,r2
    2db4:	003fe906 	br	2d5c <__gxx_personality_sj0+0x4d4>
    2db8:	39cf883a 	add	r7,r7,r7
    2dbc:	01c5c83a 	sub	r2,zero,r7
    2dc0:	003fe606 	br	2d5c <__gxx_personality_sj0+0x4d4>
    2dc4:	d8800617 	ldw	r2,24(sp)
    2dc8:	10002326 	beq	r2,zero,2e58 <__gxx_personality_sj0+0x5d0>
    2dcc:	00800184 	movi	r2,6
    2dd0:	d8800015 	stw	r2,0(sp)
    2dd4:	003f0e06 	br	2a10 <__gxx_personality_sj0+0x188>
    2dd8:	0005883a 	mov	r2,zero
    2ddc:	003fdf06 	br	2d5c <__gxx_personality_sj0+0x4d4>
    2de0:	d8c00617 	ldw	r3,24(sp)
    2de4:	183ef41e 	bne	r3,zero,29b8 <__gxx_personality_sj0+0x130>
    2de8:	d8c00717 	ldw	r3,28(sp)
    2dec:	18c000a8 	cmpgeui	r3,r3,2
    2df0:	183ef11e 	bne	r3,zero,29b8 <__gxx_personality_sj0+0x130>
    2df4:	10800060 	cmpeqi	r2,r2,1
    2df8:	103fa926 	beq	r2,zero,2ca0 <__gxx_personality_sj0+0x418>
    2dfc:	d9002517 	ldw	r4,148(sp)
    2e00:	00035a40 	call	35a4 <__cxa_call_terminate>
    2e04:	00800074 	movhi	r2,1
    2e08:	10a09504 	addi	r2,r2,-32172
    2e0c:	d8800915 	stw	r2,36(sp)
    2e10:	003f4206 	br	2b1c <__gxx_personality_sj0+0x294>
    2e14:	d8800c17 	ldw	r2,48(sp)
    2e18:	103f7e1e 	bne	r2,zero,2c14 <__gxx_personality_sj0+0x38c>
    2e1c:	d9801a17 	ldw	r6,104(sp)
    2e20:	d9400917 	ldw	r5,36(sp)
    2e24:	00bfffc4 	movi	r2,-1
    2e28:	d9001d04 	addi	r4,sp,116
    2e2c:	d8800e15 	stw	r2,56(sp)
    2e30:	00027780 	call	2778 <_ZL20check_exception_specP16lsda_header_infoPKSt9type_infoPvl>
    2e34:	10803fcc 	andi	r2,r2,255
    2e38:	103f861e 	bne	r2,zero,2c54 <__gxx_personality_sj0+0x3cc>
    2e3c:	d8800317 	ldw	r2,12(sp)
    2e40:	1080004c 	andi	r2,r2,1
    2e44:	1000271e 	bne	r2,zero,2ee4 <__gxx_personality_sj0+0x65c>
    2e48:	d8800a17 	ldw	r2,40(sp)
    2e4c:	d8800115 	stw	r2,4(sp)
    2e50:	008000c4 	movi	r2,3
    2e54:	003fe406 	br	2de8 <__gxx_personality_sj0+0x560>
    2e58:	d8800717 	ldw	r2,28(sp)
    2e5c:	108000a8 	cmpgeui	r2,r2,2
    2e60:	103fda1e 	bne	r2,zero,2dcc <__gxx_personality_sj0+0x544>
    2e64:	d8802517 	ldw	r2,148(sp)
    2e68:	d8c00417 	ldw	r3,16(sp)
    2e6c:	10fffb15 	stw	r3,-20(r2)
    2e70:	d8c00217 	ldw	r3,8(sp)
    2e74:	10fffc15 	stw	r3,-16(r2)
    2e78:	d8c00517 	ldw	r3,20(sp)
    2e7c:	10fffd15 	stw	r3,-12(r2)
    2e80:	d8c02517 	ldw	r3,148(sp)
    2e84:	d8801a17 	ldw	r2,104(sp)
    2e88:	18bfff15 	stw	r2,-4(r3)
    2e8c:	1805883a 	mov	r2,r3
    2e90:	d8c00117 	ldw	r3,4(sp)
    2e94:	10fffe15 	stw	r3,-8(r2)
    2e98:	00800184 	movi	r2,6
    2e9c:	d8800015 	stw	r2,0(sp)
    2ea0:	003edb06 	br	2a10 <__gxx_personality_sj0+0x188>
    2ea4:	d8800717 	ldw	r2,28(sp)
    2ea8:	108000a8 	cmpgeui	r2,r2,2
    2eac:	103f181e 	bne	r2,zero,2b10 <__gxx_personality_sj0+0x288>
    2eb0:	d8802517 	ldw	r2,148(sp)
    2eb4:	10800003 	ldbu	r2,0(r2)
    2eb8:	1080004c 	andi	r2,r2,1
    2ebc:	10000626 	beq	r2,zero,2ed8 <__gxx_personality_sj0+0x650>
    2ec0:	d8802517 	ldw	r2,148(sp)
    2ec4:	10bff517 	ldw	r2,-44(r2)
    2ec8:	10fff017 	ldw	r3,-64(r2)
    2ecc:	d8801a15 	stw	r2,104(sp)
    2ed0:	d8c00915 	stw	r3,36(sp)
    2ed4:	003f1106 	br	2b1c <__gxx_personality_sj0+0x294>
    2ed8:	d8802517 	ldw	r2,148(sp)
    2edc:	10800504 	addi	r2,r2,20
    2ee0:	003ff906 	br	2ec8 <__gxx_personality_sj0+0x640>
    2ee4:	d8800a17 	ldw	r2,40(sp)
    2ee8:	d8800115 	stw	r2,4(sp)
    2eec:	003fdd06 	br	2e64 <__gxx_personality_sj0+0x5dc>
    2ef0:	00800044 	movi	r2,1
    2ef4:	d8800e15 	stw	r2,56(sp)
    2ef8:	00031880 	call	3188 <_ZSt10unexpectedv>
    2efc:	d9000f17 	ldw	r4,60(sp)
    2f00:	00035fc0 	call	35fc <__cxa_begin_catch>
    2f04:	00031640 	call	3164 <_ZSt9terminatev>
    2f08:	d8800a17 	ldw	r2,40(sp)
    2f0c:	d8800115 	stw	r2,4(sp)
    2f10:	003ead06 	br	29c8 <__gxx_personality_sj0+0x140>
    2f14:	00bfffc4 	movi	r2,-1
    2f18:	d8800e15 	stw	r2,56(sp)
    2f1c:	00044b40 	call	44b4 <abort>

00002f20 <__cxa_call_unexpected>:
    2f20:	deffe704 	addi	sp,sp,-100
    2f24:	01400034 	movhi	r5,0
    2f28:	00c00034 	movhi	r3,0
    2f2c:	00800034 	movhi	r2,0
    2f30:	294a2204 	addi	r5,r5,10376
    2f34:	18d73b04 	addi	r3,r3,23788
    2f38:	108be804 	addi	r2,r2,12192
    2f3c:	d9000015 	stw	r4,0(sp)
    2f40:	d9000404 	addi	r4,sp,16
    2f44:	d9400a15 	stw	r5,40(sp)
    2f48:	d8c00b15 	stw	r3,44(sp)
    2f4c:	dfc01815 	stw	ra,96(sp)
    2f50:	d8800d15 	stw	r2,52(sp)
    2f54:	df001715 	stw	fp,92(sp)
    2f58:	df000c15 	stw	fp,48(sp)
    2f5c:	dec00e15 	stw	sp,56(sp)
    2f60:	00041a80 	call	41a8 <_Unwind_SjLj_Register>
    2f64:	d9000017 	ldw	r4,0(sp)
    2f68:	00035fc0 	call	35fc <__cxa_begin_catch>
    2f6c:	d8c00017 	ldw	r3,0(sp)
    2f70:	197ffd17 	ldw	r5,-12(r3)
    2f74:	18bffe17 	ldw	r2,-8(r3)
    2f78:	193ff717 	ldw	r4,-36(r3)
    2f7c:	d9400115 	stw	r5,4(sp)
    2f80:	197ffb17 	ldw	r5,-20(r3)
    2f84:	18fff817 	ldw	r3,-32(r3)
    2f88:	d8801315 	stw	r2,76(sp)
    2f8c:	00800044 	movi	r2,1
    2f90:	d9400015 	stw	r5,0(sp)
    2f94:	d8c00215 	stw	r3,8(sp)
    2f98:	d8800515 	stw	r2,20(sp)
    2f9c:	00031780 	call	3178 <_ZN10__cxxabiv112__unexpectedEPFvvE>
    2fa0:	d8c00617 	ldw	r3,24(sp)
    2fa4:	d8800517 	ldw	r2,20(sp)
    2fa8:	d8c00315 	stw	r3,12(sp)
    2fac:	10002b1e 	bne	r2,zero,305c <__cxa_call_unexpected+0x13c>
    2fb0:	d9000317 	ldw	r4,12(sp)
    2fb4:	00035fc0 	call	35fc <__cxa_begin_catch>
    2fb8:	00037800 	call	3780 <__cxa_get_globals_fast>
    2fbc:	10800017 	ldw	r2,0(r2)
    2fc0:	10c00b03 	ldbu	r3,44(r2)
    2fc4:	18c0004c 	andi	r3,r3,1
    2fc8:	18002e26 	beq	r3,zero,3084 <__cxa_call_unexpected+0x164>
    2fcc:	10800017 	ldw	r2,0(r2)
    2fd0:	d8800315 	stw	r2,12(sp)
    2fd4:	d9400117 	ldw	r5,4(sp)
    2fd8:	00800084 	movi	r2,2
    2fdc:	d9801104 	addi	r6,sp,68
    2fe0:	0009883a 	mov	r4,zero
    2fe4:	d8800515 	stw	r2,20(sp)
    2fe8:	000264c0 	call	264c <_ZL17parse_lsda_headerP15_Unwind_ContextPKhP16lsda_header_info>
    2fec:	d9800317 	ldw	r6,12(sp)
    2ff0:	d9c00017 	ldw	r7,0(sp)
    2ff4:	d9001104 	addi	r4,sp,68
    2ff8:	317ff017 	ldw	r5,-64(r6)
    2ffc:	00027780 	call	2778 <_ZL20check_exception_specP16lsda_header_infoPKSt9type_infoPvl>
    3000:	10803fcc 	andi	r2,r2,255
    3004:	1000221e 	bne	r2,zero,3090 <__cxa_call_unexpected+0x170>
    3008:	d9c00017 	ldw	r7,0(sp)
    300c:	01400034 	movhi	r5,0
    3010:	00800084 	movi	r2,2
    3014:	000d883a 	mov	r6,zero
    3018:	2957e104 	addi	r5,r5,24452
    301c:	d9001104 	addi	r4,sp,68
    3020:	d8800515 	stw	r2,20(sp)
    3024:	00027780 	call	2778 <_ZL20check_exception_specP16lsda_header_infoPKSt9type_infoPvl>
    3028:	10803fcc 	andi	r2,r2,255
    302c:	10001926 	beq	r2,zero,3094 <__cxa_call_unexpected+0x174>
    3030:	01000104 	movi	r4,4
    3034:	00034c00 	call	34c0 <__cxa_allocate_exception>
    3038:	1009883a 	mov	r4,r2
    303c:	00800034 	movhi	r2,0
    3040:	01800034 	movhi	r6,0
    3044:	01400034 	movhi	r5,0
    3048:	1097f704 	addi	r2,r2,24540
    304c:	318dda04 	addi	r6,r6,14184
    3050:	2957e104 	addi	r5,r5,24452
    3054:	20800015 	stw	r2,0(r4)
    3058:	00032800 	call	3280 <__cxa_throw>
    305c:	10bfffc4 	addi	r2,r2,-1
    3060:	10000126 	beq	r2,zero,3068 <__cxa_call_unexpected+0x148>
    3064:	003b68fa 	trap	3
    3068:	d8000515 	stw	zero,20(sp)
    306c:	00036b40 	call	36b4 <__cxa_end_catch>
    3070:	00036b40 	call	36b4 <__cxa_end_catch>
    3074:	d9000317 	ldw	r4,12(sp)
    3078:	00bfffc4 	movi	r2,-1
    307c:	d8800515 	stw	r2,20(sp)
    3080:	00043900 	call	4390 <_Unwind_SjLj_Resume>
    3084:	10801004 	addi	r2,r2,64
    3088:	d8800315 	stw	r2,12(sp)
    308c:	003fd106 	br	2fd4 <__cxa_call_unexpected+0xb4>
    3090:	00032e00 	call	32e0 <__cxa_rethrow>
    3094:	d9000217 	ldw	r4,8(sp)
    3098:	000309c0 	call	309c <_ZN10__cxxabiv111__terminateEPFvvE>

0000309c <_ZN10__cxxabiv111__terminateEPFvvE>:
    309c:	deffef04 	addi	sp,sp,-68
    30a0:	01400034 	movhi	r5,0
    30a4:	00c00034 	movhi	r3,0
    30a8:	00800034 	movhi	r2,0
    30ac:	200d883a 	mov	r6,r4
    30b0:	108c3e04 	addi	r2,r2,12536
    30b4:	294a2204 	addi	r5,r5,10376
    30b8:	18d73f04 	addi	r3,r3,23804
    30bc:	d9000204 	addi	r4,sp,8
    30c0:	d8800b15 	stw	r2,44(sp)
    30c4:	dfc01015 	stw	ra,64(sp)
    30c8:	df000f15 	stw	fp,60(sp)
    30cc:	d9800015 	stw	r6,0(sp)
    30d0:	d9400815 	stw	r5,32(sp)
    30d4:	d8c00915 	stw	r3,36(sp)
    30d8:	df000a15 	stw	fp,40(sp)
    30dc:	dec00c15 	stw	sp,48(sp)
    30e0:	00041a80 	call	41a8 <_Unwind_SjLj_Register>
    30e4:	00800044 	movi	r2,1
    30e8:	d8800315 	stw	r2,12(sp)
    30ec:	d8800017 	ldw	r2,0(sp)
    30f0:	103ee83a 	callr	r2
    30f4:	00044b40 	call	44b4 <abort>
    30f8:	d8c00417 	ldw	r3,16(sp)
    30fc:	d8800317 	ldw	r2,12(sp)
    3100:	d8c00015 	stw	r3,0(sp)
    3104:	d8c00517 	ldw	r3,20(sp)
    3108:	d8c00115 	stw	r3,4(sp)
    310c:	1000051e 	bne	r2,zero,3124 <_ZN10__cxxabiv111__terminateEPFvvE+0x88>
    3110:	d9000017 	ldw	r4,0(sp)
    3114:	00035fc0 	call	35fc <__cxa_begin_catch>
    3118:	00800084 	movi	r2,2
    311c:	d8800315 	stw	r2,12(sp)
    3120:	00044b40 	call	44b4 <abort>
    3124:	10bfffc4 	addi	r2,r2,-1
    3128:	10000126 	beq	r2,zero,3130 <_ZN10__cxxabiv111__terminateEPFvvE+0x94>
    312c:	003b68fa 	trap	3
    3130:	d8000315 	stw	zero,12(sp)
    3134:	00036b40 	call	36b4 <__cxa_end_catch>
    3138:	d8c00117 	ldw	r3,4(sp)
    313c:	18bfffe0 	cmpeqi	r2,r3,-1
    3140:	10000426 	beq	r2,zero,3154 <_ZN10__cxxabiv111__terminateEPFvvE+0xb8>
    3144:	d8800117 	ldw	r2,4(sp)
    3148:	d9000017 	ldw	r4,0(sp)
    314c:	d8800315 	stw	r2,12(sp)
    3150:	0002f200 	call	2f20 <__cxa_call_unexpected>
    3154:	d9000017 	ldw	r4,0(sp)
    3158:	00bfffc4 	movi	r2,-1
    315c:	d8800315 	stw	r2,12(sp)
    3160:	00043900 	call	4390 <_Unwind_SjLj_Resume>

00003164 <_ZSt9terminatev>:
    3164:	00800074 	movhi	r2,1
    3168:	11209917 	ldw	r4,-32156(r2)
    316c:	deffff04 	addi	sp,sp,-4
    3170:	dfc00015 	stw	ra,0(sp)
    3174:	000309c0 	call	309c <_ZN10__cxxabiv111__terminateEPFvvE>

00003178 <_ZN10__cxxabiv112__unexpectedEPFvvE>:
    3178:	deffff04 	addi	sp,sp,-4
    317c:	dfc00015 	stw	ra,0(sp)
    3180:	203ee83a 	callr	r4
    3184:	00031640 	call	3164 <_ZSt9terminatev>

00003188 <_ZSt10unexpectedv>:
    3188:	00800074 	movhi	r2,1
    318c:	11209217 	ldw	r4,-32184(r2)
    3190:	deffff04 	addi	sp,sp,-4
    3194:	dfc00015 	stw	ra,0(sp)
    3198:	00031780 	call	3178 <_ZN10__cxxabiv112__unexpectedEPFvvE>

0000319c <_ZSt13get_terminatev>:
    319c:	00800074 	movhi	r2,1
    31a0:	10a09917 	ldw	r2,-32156(r2)
    31a4:	f800283a 	ret

000031a8 <_ZSt14get_unexpectedv>:
    31a8:	00800074 	movhi	r2,1
    31ac:	10a09217 	ldw	r2,-32184(r2)
    31b0:	f800283a 	ret

000031b4 <_ZL23__gxx_exception_cleanup19_Unwind_Reason_CodeP17_Unwind_Exception>:
    31b4:	defffe04 	addi	sp,sp,-8
    31b8:	dfc00115 	stw	ra,4(sp)
    31bc:	dc000015 	stw	r16,0(sp)
    31c0:	210000b0 	cmpltui	r4,r4,2
    31c4:	20001326 	beq	r4,zero,3214 <_ZL23__gxx_exception_cleanup19_Unwind_Reason_CodeP17_Unwind_Exception+0x60>
    31c8:	28bff417 	ldw	r2,-48(r5)
    31cc:	10ffffc4 	addi	r3,r2,-1
    31d0:	28fff415 	stw	r3,-48(r5)
    31d4:	10800058 	cmpnei	r2,r2,1
    31d8:	10000426 	beq	r2,zero,31ec <_ZL23__gxx_exception_cleanup19_Unwind_Reason_CodeP17_Unwind_Exception+0x38>
    31dc:	dfc00117 	ldw	ra,4(sp)
    31e0:	dc000017 	ldw	r16,0(sp)
    31e4:	dec00204 	addi	sp,sp,8
    31e8:	f800283a 	ret
    31ec:	28bff617 	ldw	r2,-40(r5)
    31f0:	2c000504 	addi	r16,r5,20
    31f4:	10000226 	beq	r2,zero,3200 <_ZL23__gxx_exception_cleanup19_Unwind_Reason_CodeP17_Unwind_Exception+0x4c>
    31f8:	8009883a 	mov	r4,r16
    31fc:	103ee83a 	callr	r2
    3200:	8009883a 	mov	r4,r16
    3204:	dfc00117 	ldw	ra,4(sp)
    3208:	dc000017 	ldw	r16,0(sp)
    320c:	dec00204 	addi	sp,sp,8
    3210:	00035181 	jmpi	3518 <__cxa_free_exception>
    3214:	293ff817 	ldw	r4,-32(r5)
    3218:	000309c0 	call	309c <_ZN10__cxxabiv111__terminateEPFvvE>

0000321c <__cxa_init_primary_exception>:
    321c:	defffe04 	addi	sp,sp,-8
    3220:	dfc00115 	stw	ra,4(sp)
    3224:	dc000015 	stw	r16,0(sp)
    3228:	217ff015 	stw	r5,-64(r4)
    322c:	21bff115 	stw	r6,-60(r4)
    3230:	203fef15 	stw	zero,-68(r4)
    3234:	2021883a 	mov	r16,r4
    3238:	00031a80 	call	31a8 <_ZSt14get_unexpectedv>
    323c:	80bff215 	stw	r2,-56(r16)
    3240:	000319c0 	call	319c <_ZSt13get_terminatev>
    3244:	0150caf4 	movhi	r5,17195
    3248:	0111d3b4 	movhi	r4,18254
    324c:	00c00034 	movhi	r3,0
    3250:	294ac004 	addi	r5,r5,11008
    3254:	211550c4 	addi	r4,r4,21827
    3258:	18cc6d04 	addi	r3,r3,12724
    325c:	80bff315 	stw	r2,-52(r16)
    3260:	80bfef04 	addi	r2,r16,-68
    3264:	817ffb15 	stw	r5,-20(r16)
    3268:	813ffc15 	stw	r4,-16(r16)
    326c:	80fffd15 	stw	r3,-12(r16)
    3270:	dfc00117 	ldw	ra,4(sp)
    3274:	dc000017 	ldw	r16,0(sp)
    3278:	dec00204 	addi	sp,sp,8
    327c:	f800283a 	ret

00003280 <__cxa_throw>:
    3280:	defffc04 	addi	sp,sp,-16
    3284:	dfc00315 	stw	ra,12(sp)
    3288:	dc800215 	stw	r18,8(sp)
    328c:	dc400115 	stw	r17,4(sp)
    3290:	dc000015 	stw	r16,0(sp)
    3294:	2823883a 	mov	r17,r5
    3298:	2021883a 	mov	r16,r4
    329c:	3025883a 	mov	r18,r6
    32a0:	000378c0 	call	378c <__cxa_get_globals>
    32a4:	10c00117 	ldw	r3,4(r2)
    32a8:	900d883a 	mov	r6,r18
    32ac:	880b883a 	mov	r5,r17
    32b0:	18c00044 	addi	r3,r3,1
    32b4:	8009883a 	mov	r4,r16
    32b8:	10c00115 	stw	r3,4(r2)
    32bc:	000321c0 	call	321c <__cxa_init_primary_exception>
    32c0:	14000c04 	addi	r16,r2,48
    32c4:	00c00044 	movi	r3,1
    32c8:	10c00015 	stw	r3,0(r2)
    32cc:	8009883a 	mov	r4,r16
    32d0:	00042840 	call	4284 <_Unwind_SjLj_RaiseException>
    32d4:	8009883a 	mov	r4,r16
    32d8:	00035fc0 	call	35fc <__cxa_begin_catch>
    32dc:	00031640 	call	3164 <_ZSt9terminatev>

000032e0 <__cxa_rethrow>:
    32e0:	defffe04 	addi	sp,sp,-8
    32e4:	dfc00115 	stw	ra,4(sp)
    32e8:	dc000015 	stw	r16,0(sp)
    32ec:	000378c0 	call	378c <__cxa_get_globals>
    32f0:	10c00117 	ldw	r3,4(r2)
    32f4:	11000017 	ldw	r4,0(r2)
    32f8:	18c00044 	addi	r3,r3,1
    32fc:	10c00115 	stw	r3,4(r2)
    3300:	20001126 	beq	r4,zero,3348 <__cxa_rethrow+0x68>
    3304:	20c00b17 	ldw	r3,44(r4)
    3308:	21800c17 	ldw	r6,48(r4)
    330c:	016f3574 	movhi	r5,48341
    3310:	29754004 	addi	r5,r5,-11008
    3314:	01ee2cb4 	movhi	r7,47282
    3318:	39eaaf04 	addi	r7,r7,-21828
    331c:	194b883a 	add	r5,r3,r5
    3320:	28c7803a 	cmpltu	r3,r5,r3
    3324:	31cd883a 	add	r6,r6,r7
    3328:	1987883a 	add	r3,r3,r6
    332c:	18000726 	beq	r3,zero,334c <__cxa_rethrow+0x6c>
    3330:	10000015 	stw	zero,0(r2)
    3334:	24000b04 	addi	r16,r4,44
    3338:	8009883a 	mov	r4,r16
    333c:	00043d40 	call	43d4 <_Unwind_SjLj_Resume_or_Rethrow>
    3340:	8009883a 	mov	r4,r16
    3344:	00035fc0 	call	35fc <__cxa_begin_catch>
    3348:	00031640 	call	3164 <_ZSt9terminatev>
    334c:	294000a8 	cmpgeui	r5,r5,2
    3350:	283ff71e 	bne	r5,zero,3330 <__cxa_rethrow+0x50>
    3354:	20800517 	ldw	r2,20(r4)
    3358:	0085c83a 	sub	r2,zero,r2
    335c:	20800515 	stw	r2,20(r4)
    3360:	003ff406 	br	3334 <__cxa_rethrow+0x54>

00003364 <_ZN12_GLOBAL__N_14pool4freeEPv.constprop.0>:
    3364:	01400074 	movhi	r5,1
    3368:	2960d704 	addi	r5,r5,-31908
    336c:	28c00117 	ldw	r3,4(r5)
    3370:	223fff04 	addi	r8,r4,-4
    3374:	18001a26 	beq	r3,zero,33e0 <_ZN12_GLOBAL__N_14pool4freeEPv.constprop.0+0x7c>
    3378:	227fff17 	ldw	r9,-4(r4)
    337c:	424d883a 	add	r6,r8,r9
    3380:	30c01736 	bltu	r6,r3,33e0 <_ZN12_GLOBAL__N_14pool4freeEPv.constprop.0+0x7c>
    3384:	18800117 	ldw	r2,4(r3)
    3388:	19802326 	beq	r3,r6,3418 <_ZN12_GLOBAL__N_14pool4freeEPv.constprop.0+0xb4>
    338c:	01c00074 	movhi	r7,1
    3390:	39e0d804 	addi	r7,r7,-31904
    3394:	10000726 	beq	r2,zero,33b4 <_ZN12_GLOBAL__N_14pool4freeEPv.constprop.0+0x50>
    3398:	3080062e 	bgeu	r6,r2,33b4 <_ZN12_GLOBAL__N_14pool4freeEPv.constprop.0+0x50>
    339c:	11400117 	ldw	r5,4(r2)
    33a0:	19c00104 	addi	r7,r3,4
    33a4:	1007883a 	mov	r3,r2
    33a8:	28001826 	beq	r5,zero,340c <_ZN12_GLOBAL__N_14pool4freeEPv.constprop.0+0xa8>
    33ac:	2805883a 	mov	r2,r5
    33b0:	30bffa36 	bltu	r6,r2,339c <_ZN12_GLOBAL__N_14pool4freeEPv.constprop.0+0x38>
    33b4:	30801026 	beq	r6,r2,33f8 <_ZN12_GLOBAL__N_14pool4freeEPv.constprop.0+0x94>
    33b8:	38800017 	ldw	r2,0(r7)
    33bc:	10c00017 	ldw	r3,0(r2)
    33c0:	10cb883a 	add	r5,r2,r3
    33c4:	41400926 	beq	r8,r5,33ec <_ZN12_GLOBAL__N_14pool4freeEPv.constprop.0+0x88>
    33c8:	10800117 	ldw	r2,4(r2)
    33cc:	227fff15 	stw	r9,-4(r4)
    33d0:	20800015 	stw	r2,0(r4)
    33d4:	38800017 	ldw	r2,0(r7)
    33d8:	12000115 	stw	r8,4(r2)
    33dc:	f800283a 	ret
    33e0:	20c00015 	stw	r3,0(r4)
    33e4:	2a000115 	stw	r8,4(r5)
    33e8:	f800283a 	ret
    33ec:	1a47883a 	add	r3,r3,r9
    33f0:	10c00015 	stw	r3,0(r2)
    33f4:	f800283a 	ret
    33f8:	31400017 	ldw	r5,0(r6)
    33fc:	30800117 	ldw	r2,4(r6)
    3400:	4953883a 	add	r9,r9,r5
    3404:	18800115 	stw	r2,4(r3)
    3408:	003feb06 	br	33b8 <_ZN12_GLOBAL__N_14pool4freeEPv.constprop.0+0x54>
    340c:	0005883a 	mov	r2,zero
    3410:	30bfe91e 	bne	r6,r2,33b8 <_ZN12_GLOBAL__N_14pool4freeEPv.constprop.0+0x54>
    3414:	003ff806 	br	33f8 <_ZN12_GLOBAL__N_14pool4freeEPv.constprop.0+0x94>
    3418:	18c00017 	ldw	r3,0(r3)
    341c:	20800015 	stw	r2,0(r4)
    3420:	1a53883a 	add	r9,r3,r9
    3424:	227fff15 	stw	r9,-4(r4)
    3428:	2a000115 	stw	r8,4(r5)
    342c:	f800283a 	ret

00003430 <_ZN12_GLOBAL__N_14pool8allocateEj.constprop.0>:
    3430:	21000104 	addi	r4,r4,4
    3434:	20800228 	cmpgeui	r2,r4,8
    3438:	1000011e 	bne	r2,zero,3440 <_ZN12_GLOBAL__N_14pool8allocateEj.constprop.0+0x10>
    343c:	01000204 	movi	r4,8
    3440:	00800074 	movhi	r2,1
    3444:	10a0d817 	ldw	r2,-31904(r2)
    3448:	210000c4 	addi	r4,r4,3
    344c:	00ffff04 	movi	r3,-4
    3450:	20c8703a 	and	r4,r4,r3
    3454:	10001026 	beq	r2,zero,3498 <_ZN12_GLOBAL__N_14pool8allocateEj.constprop.0+0x68>
    3458:	01800074 	movhi	r6,1
    345c:	31a0d804 	addi	r6,r6,-31904
    3460:	00000206 	br	346c <_ZN12_GLOBAL__N_14pool8allocateEj.constprop.0+0x3c>
    3464:	19800104 	addi	r6,r3,4
    3468:	10001426 	beq	r2,zero,34bc <_ZN12_GLOBAL__N_14pool8allocateEj.constprop.0+0x8c>
    346c:	11400017 	ldw	r5,0(r2)
    3470:	1007883a 	mov	r3,r2
    3474:	10800117 	ldw	r2,4(r2)
    3478:	293ffa36 	bltu	r5,r4,3464 <_ZN12_GLOBAL__N_14pool8allocateEj.constprop.0+0x34>
    347c:	290fc83a 	sub	r7,r5,r4
    3480:	3a000228 	cmpgeui	r8,r7,8
    3484:	4000051e 	bne	r8,zero,349c <_ZN12_GLOBAL__N_14pool8allocateEj.constprop.0+0x6c>
    3488:	19400015 	stw	r5,0(r3)
    348c:	30800015 	stw	r2,0(r6)
    3490:	18800104 	addi	r2,r3,4
    3494:	f800283a 	ret
    3498:	f800283a 	ret
    349c:	190b883a 	add	r5,r3,r4
    34a0:	28800115 	stw	r2,4(r5)
    34a4:	30c00017 	ldw	r3,0(r6)
    34a8:	29c00015 	stw	r7,0(r5)
    34ac:	19000015 	stw	r4,0(r3)
    34b0:	31400015 	stw	r5,0(r6)
    34b4:	18800104 	addi	r2,r3,4
    34b8:	f800283a 	ret
    34bc:	f800283a 	ret

000034c0 <__cxa_allocate_exception>:
    34c0:	defffe04 	addi	sp,sp,-8
    34c4:	dc000015 	stw	r16,0(sp)
    34c8:	24001104 	addi	r16,r4,68
    34cc:	8009883a 	mov	r4,r16
    34d0:	dfc00115 	stw	ra,4(sp)
    34d4:	00044cc0 	call	44cc <malloc>
    34d8:	1007883a 	mov	r3,r2
    34dc:	10000926 	beq	r2,zero,3504 <__cxa_allocate_exception+0x44>
    34e0:	01801104 	movi	r6,68
    34e4:	000b883a 	mov	r5,zero
    34e8:	1809883a 	mov	r4,r3
    34ec:	00045740 	call	4574 <memset>
    34f0:	10801104 	addi	r2,r2,68
    34f4:	dfc00117 	ldw	ra,4(sp)
    34f8:	dc000017 	ldw	r16,0(sp)
    34fc:	dec00204 	addi	sp,sp,8
    3500:	f800283a 	ret
    3504:	8009883a 	mov	r4,r16
    3508:	00034300 	call	3430 <_ZN12_GLOBAL__N_14pool8allocateEj.constprop.0>
    350c:	1007883a 	mov	r3,r2
    3510:	103ff31e 	bne	r2,zero,34e0 <__cxa_allocate_exception+0x20>
    3514:	00031640 	call	3164 <_ZSt9terminatev>

00003518 <__cxa_free_exception>:
    3518:	00800074 	movhi	r2,1
    351c:	10a0d704 	addi	r2,r2,-31908
    3520:	10c00217 	ldw	r3,8(r2)
    3524:	213fef04 	addi	r4,r4,-68
    3528:	1900042e 	bgeu	r3,r4,353c <__cxa_free_exception+0x24>
    352c:	10800317 	ldw	r2,12(r2)
    3530:	1887883a 	add	r3,r3,r2
    3534:	20c0012e 	bgeu	r4,r3,353c <__cxa_free_exception+0x24>
    3538:	00033641 	jmpi	3364 <_ZN12_GLOBAL__N_14pool4freeEPv.constprop.0>
    353c:	00044dc1 	jmpi	44dc <free>

00003540 <_GLOBAL__sub_I__ZN9__gnu_cxx9__freeresEv>:
    3540:	defffd04 	addi	sp,sp,-12
    3544:	dc000015 	stw	r16,0(sp)
    3548:	04000074 	movhi	r16,1
    354c:	dc400115 	stw	r17,4(sp)
    3550:	8420d704 	addi	r16,r16,-31908
    3554:	04424004 	movi	r17,2304
    3558:	01024004 	movi	r4,2304
    355c:	dfc00215 	stw	ra,8(sp)
    3560:	84400315 	stw	r17,12(r16)
    3564:	00044cc0 	call	44cc <malloc>
    3568:	80800215 	stw	r2,8(r16)
    356c:	10000826 	beq	r2,zero,3590 <_GLOBAL__sub_I__ZN9__gnu_cxx9__freeresEv+0x50>
    3570:	80800115 	stw	r2,4(r16)
    3574:	14400015 	stw	r17,0(r2)
    3578:	10000115 	stw	zero,4(r2)
    357c:	dfc00217 	ldw	ra,8(sp)
    3580:	dc400117 	ldw	r17,4(sp)
    3584:	dc000017 	ldw	r16,0(sp)
    3588:	dec00304 	addi	sp,sp,12
    358c:	f800283a 	ret
    3590:	00800074 	movhi	r2,1
    3594:	1020da15 	stw	zero,-31896(r2)
    3598:	00800074 	movhi	r2,1
    359c:	1020d815 	stw	zero,-31904(r2)
    35a0:	003ff606 	br	357c <_GLOBAL__sub_I__ZN9__gnu_cxx9__freeresEv+0x3c>

000035a4 <__cxa_call_terminate>:
    35a4:	defffe04 	addi	sp,sp,-8
    35a8:	dfc00115 	stw	ra,4(sp)
    35ac:	dc000015 	stw	r16,0(sp)
    35b0:	20000d26 	beq	r4,zero,35e8 <__cxa_call_terminate+0x44>
    35b4:	2021883a 	mov	r16,r4
    35b8:	00035fc0 	call	35fc <__cxa_begin_catch>
    35bc:	80800017 	ldw	r2,0(r16)
    35c0:	81000117 	ldw	r4,4(r16)
    35c4:	00ef3574 	movhi	r3,48341
    35c8:	18f54004 	addi	r3,r3,-11008
    35cc:	016e2cb4 	movhi	r5,47282
    35d0:	296aaf04 	addi	r5,r5,-21828
    35d4:	10c7883a 	add	r3,r2,r3
    35d8:	1885803a 	cmpltu	r2,r3,r2
    35dc:	2149883a 	add	r4,r4,r5
    35e0:	1105883a 	add	r2,r2,r4
    35e4:	10000126 	beq	r2,zero,35ec <__cxa_call_terminate+0x48>
    35e8:	00031640 	call	3164 <_ZSt9terminatev>
    35ec:	18c000a8 	cmpgeui	r3,r3,2
    35f0:	183ffd1e 	bne	r3,zero,35e8 <__cxa_call_terminate+0x44>
    35f4:	813ff817 	ldw	r4,-32(r16)
    35f8:	000309c0 	call	309c <_ZN10__cxxabiv111__terminateEPFvvE>

000035fc <__cxa_begin_catch>:
    35fc:	defffe04 	addi	sp,sp,-8
    3600:	dc000015 	stw	r16,0(sp)
    3604:	dfc00115 	stw	ra,4(sp)
    3608:	2021883a 	mov	r16,r4
    360c:	000378c0 	call	378c <__cxa_get_globals>
    3610:	80c00017 	ldw	r3,0(r16)
    3614:	81800117 	ldw	r6,4(r16)
    3618:	012f3574 	movhi	r4,48341
    361c:	21354004 	addi	r4,r4,-11008
    3620:	016e2cb4 	movhi	r5,47282
    3624:	296aaf04 	addi	r5,r5,-21828
    3628:	1909883a 	add	r4,r3,r4
    362c:	314d883a 	add	r6,r6,r5
    3630:	20c7803a 	cmpltu	r3,r4,r3
    3634:	1987883a 	add	r3,r3,r6
    3638:	100b883a 	mov	r5,r2
    363c:	81bff504 	addi	r6,r16,-44
    3640:	10800017 	ldw	r2,0(r2)
    3644:	18000626 	beq	r3,zero,3660 <__cxa_begin_catch+0x64>
    3648:	1000191e 	bne	r2,zero,36b0 <__cxa_begin_catch+0xb4>
    364c:	29800015 	stw	r6,0(r5)
    3650:	dfc00117 	ldw	ra,4(sp)
    3654:	dc000017 	ldw	r16,0(sp)
    3658:	dec00204 	addi	sp,sp,8
    365c:	f800283a 	ret
    3660:	210000a8 	cmpgeui	r4,r4,2
    3664:	203ff81e 	bne	r4,zero,3648 <__cxa_begin_catch+0x4c>
    3668:	80fffa17 	ldw	r3,-24(r16)
    366c:	18000d16 	blt	r3,zero,36a4 <__cxa_begin_catch+0xa8>
    3670:	18c00044 	addi	r3,r3,1
    3674:	29000117 	ldw	r4,4(r5)
    3678:	80fffa15 	stw	r3,-24(r16)
    367c:	20ffffc4 	addi	r3,r4,-1
    3680:	28c00115 	stw	r3,4(r5)
    3684:	11800226 	beq	r2,r6,3690 <__cxa_begin_catch+0x94>
    3688:	80bff915 	stw	r2,-28(r16)
    368c:	29800015 	stw	r6,0(r5)
    3690:	80bfff17 	ldw	r2,-4(r16)
    3694:	dfc00117 	ldw	ra,4(sp)
    3698:	dc000017 	ldw	r16,0(sp)
    369c:	dec00204 	addi	sp,sp,8
    36a0:	f800283a 	ret
    36a4:	01000044 	movi	r4,1
    36a8:	20c7c83a 	sub	r3,r4,r3
    36ac:	003ff106 	br	3674 <__cxa_begin_catch+0x78>
    36b0:	00031640 	call	3164 <_ZSt9terminatev>

000036b4 <__cxa_end_catch>:
    36b4:	deffff04 	addi	sp,sp,-4
    36b8:	dfc00015 	stw	ra,0(sp)
    36bc:	00037800 	call	3780 <__cxa_get_globals_fast>
    36c0:	11000017 	ldw	r4,0(r2)
    36c4:	20001426 	beq	r4,zero,3718 <__cxa_end_catch+0x64>
    36c8:	20c00b17 	ldw	r3,44(r4)
    36cc:	21800c17 	ldw	r6,48(r4)
    36d0:	016f3574 	movhi	r5,48341
    36d4:	29754004 	addi	r5,r5,-11008
    36d8:	01ee2cb4 	movhi	r7,47282
    36dc:	39eaaf04 	addi	r7,r7,-21828
    36e0:	194b883a 	add	r5,r3,r5
    36e4:	28c7803a 	cmpltu	r3,r5,r3
    36e8:	31cd883a 	add	r6,r6,r7
    36ec:	1987883a 	add	r3,r3,r6
    36f0:	1800111e 	bne	r3,zero,3738 <__cxa_end_catch+0x84>
    36f4:	294000a8 	cmpgeui	r5,r5,2
    36f8:	28000f1e 	bne	r5,zero,3738 <__cxa_end_catch+0x84>
    36fc:	20c00517 	ldw	r3,20(r4)
    3700:	18000816 	blt	r3,zero,3724 <__cxa_end_catch+0x70>
    3704:	18ffffc4 	addi	r3,r3,-1
    3708:	18001026 	beq	r3,zero,374c <__cxa_end_catch+0x98>
    370c:	18bfffd8 	cmpnei	r2,r3,-1
    3710:	10001426 	beq	r2,zero,3764 <__cxa_end_catch+0xb0>
    3714:	20c00515 	stw	r3,20(r4)
    3718:	dfc00017 	ldw	ra,0(sp)
    371c:	dec00104 	addi	sp,sp,4
    3720:	f800283a 	ret
    3724:	18c00044 	addi	r3,r3,1
    3728:	183ffa1e 	bne	r3,zero,3714 <__cxa_end_catch+0x60>
    372c:	21400417 	ldw	r5,16(r4)
    3730:	11400015 	stw	r5,0(r2)
    3734:	003ff706 	br	3714 <__cxa_end_catch+0x60>
    3738:	21000b04 	addi	r4,r4,44
    373c:	10000015 	stw	zero,0(r2)
    3740:	dfc00017 	ldw	ra,0(sp)
    3744:	dec00104 	addi	sp,sp,4
    3748:	00044141 	jmpi	4414 <_Unwind_DeleteException>
    374c:	20c00417 	ldw	r3,16(r4)
    3750:	21000b04 	addi	r4,r4,44
    3754:	10c00015 	stw	r3,0(r2)
    3758:	dfc00017 	ldw	ra,0(sp)
    375c:	dec00104 	addi	sp,sp,4
    3760:	00044141 	jmpi	4414 <_Unwind_DeleteException>
    3764:	00031640 	call	3164 <_ZSt9terminatev>

00003768 <_ZNSt13bad_exceptionD1Ev>:
    3768:	f800283a 	ret

0000376c <_ZGTtNKSt13bad_exception4whatEv>:
    376c:	00800034 	movhi	r2,0
    3770:	1097d304 	addi	r2,r2,24396
    3774:	f800283a 	ret

00003778 <_ZNSt13bad_exceptionD0Ev>:
    3778:	01400104 	movi	r5,4
    377c:	0003d101 	jmpi	3d10 <_ZdlPvj>

00003780 <__cxa_get_globals_fast>:
    3780:	00800074 	movhi	r2,1
    3784:	10a0b304 	addi	r2,r2,-32052
    3788:	f800283a 	ret

0000378c <__cxa_get_globals>:
    378c:	00800074 	movhi	r2,1
    3790:	10a0b304 	addi	r2,r2,-32052
    3794:	f800283a 	ret

00003798 <_ZN10__cxxabiv120__si_class_type_infoD1Ev>:
    3798:	00800034 	movhi	r2,0
    379c:	10980904 	addi	r2,r2,24612
    37a0:	20800015 	stw	r2,0(r4)
    37a4:	0003afc1 	jmpi	3afc <_ZN10__cxxabiv117__class_type_infoD1Ev>

000037a8 <_ZN10__cxxabiv120__si_class_type_infoD0Ev>:
    37a8:	defffe04 	addi	sp,sp,-8
    37ac:	00800034 	movhi	r2,0
    37b0:	dc000015 	stw	r16,0(sp)
    37b4:	dfc00115 	stw	ra,4(sp)
    37b8:	10980904 	addi	r2,r2,24612
    37bc:	20800015 	stw	r2,0(r4)
    37c0:	2021883a 	mov	r16,r4
    37c4:	0003afc0 	call	3afc <_ZN10__cxxabiv117__class_type_infoD1Ev>
    37c8:	01400304 	movi	r5,12
    37cc:	8009883a 	mov	r4,r16
    37d0:	dfc00117 	ldw	ra,4(sp)
    37d4:	dc000017 	ldw	r16,0(sp)
    37d8:	dec00204 	addi	sp,sp,8
    37dc:	0003d101 	jmpi	3d10 <_ZdlPvj>

000037e0 <_ZNK10__cxxabiv120__si_class_type_info12__do_dyncastEiNS_17__class_type_info10__sub_kindEPKS1_PKvS4_S6_RNS1_16__dyncast_resultE>:
    37e0:	defff504 	addi	sp,sp,-44
    37e4:	dcc00415 	stw	r19,16(sp)
    37e8:	38800117 	ldw	r2,4(r7)
    37ec:	24c00117 	ldw	r19,4(r4)
    37f0:	df000915 	stw	fp,36(sp)
    37f4:	dd800715 	stw	r22,28(sp)
    37f8:	dd400615 	stw	r21,24(sp)
    37fc:	dd000515 	stw	r20,20(sp)
    3800:	dc000115 	stw	r16,4(sp)
    3804:	dfc00a15 	stw	ra,40(sp)
    3808:	ddc00815 	stw	r23,32(sp)
    380c:	dc800315 	stw	r18,12(sp)
    3810:	dc400215 	stw	r17,8(sp)
    3814:	dd000b17 	ldw	r20,44(sp)
    3818:	df000c17 	ldw	fp,48(sp)
    381c:	dd800d17 	ldw	r22,52(sp)
    3820:	dd400e17 	ldw	r21,56(sp)
    3824:	2821883a 	mov	r16,r5
    3828:	98800b26 	beq	r19,r2,3858 <_ZNK10__cxxabiv120__si_class_type_info12__do_dyncastEiNS_17__class_type_info10__sub_kindEPKS1_PKvS4_S6_RNS1_16__dyncast_resultE+0x78>
    382c:	9dc00007 	ldb	r23,0(r19)
    3830:	2025883a 	mov	r18,r4
    3834:	3823883a 	mov	r17,r7
    3838:	b8c00aa0 	cmpeqi	r3,r23,42
    383c:	18001a1e 	bne	r3,zero,38a8 <_ZNK10__cxxabiv120__si_class_type_info12__do_dyncastEiNS_17__class_type_info10__sub_kindEPKS1_PKvS4_S6_RNS1_16__dyncast_resultE+0xc8>
    3840:	100b883a 	mov	r5,r2
    3844:	9809883a 	mov	r4,r19
    3848:	d9800015 	stw	r6,0(sp)
    384c:	00049980 	call	4998 <strcmp>
    3850:	d9800017 	ldw	r6,0(sp)
    3854:	1000141e 	bne	r2,zero,38a8 <_ZNK10__cxxabiv120__si_class_type_info12__do_dyncastEiNS_17__class_type_info10__sub_kindEPKS1_PKvS4_S6_RNS1_16__dyncast_resultE+0xc8>
    3858:	ad000015 	stw	r20,0(r21)
    385c:	a9800115 	stw	r6,4(r21)
    3860:	80003416 	blt	r16,zero,3934 <_ZNK10__cxxabiv120__si_class_type_info12__do_dyncastEiNS_17__class_type_info10__sub_kindEPKS1_PKvS4_S6_RNS1_16__dyncast_resultE+0x154>
    3864:	a421883a 	add	r16,r20,r16
    3868:	b4003026 	beq	r22,r16,392c <_ZNK10__cxxabiv120__si_class_type_info12__do_dyncastEiNS_17__class_type_info10__sub_kindEPKS1_PKvS4_S6_RNS1_16__dyncast_resultE+0x14c>
    386c:	00800044 	movi	r2,1
    3870:	a8800315 	stw	r2,12(r21)
    3874:	0005883a 	mov	r2,zero
    3878:	dfc00a17 	ldw	ra,40(sp)
    387c:	df000917 	ldw	fp,36(sp)
    3880:	ddc00817 	ldw	r23,32(sp)
    3884:	dd800717 	ldw	r22,28(sp)
    3888:	dd400617 	ldw	r21,24(sp)
    388c:	dd000517 	ldw	r20,20(sp)
    3890:	dcc00417 	ldw	r19,16(sp)
    3894:	dc800317 	ldw	r18,12(sp)
    3898:	dc400217 	ldw	r17,8(sp)
    389c:	dc000117 	ldw	r16,4(sp)
    38a0:	dec00b04 	addi	sp,sp,44
    38a4:	f800283a 	ret
    38a8:	a5801526 	beq	r20,r22,3900 <_ZNK10__cxxabiv120__si_class_type_info12__do_dyncastEiNS_17__class_type_info10__sub_kindEPKS1_PKvS4_S6_RNS1_16__dyncast_resultE+0x120>
    38ac:	91000217 	ldw	r4,8(r18)
    38b0:	880f883a 	mov	r7,r17
    38b4:	800b883a 	mov	r5,r16
    38b8:	20800017 	ldw	r2,0(r4)
    38bc:	dd400e15 	stw	r21,56(sp)
    38c0:	dd800d15 	stw	r22,52(sp)
    38c4:	df000c15 	stw	fp,48(sp)
    38c8:	dd000b15 	stw	r20,44(sp)
    38cc:	10800717 	ldw	r2,28(r2)
    38d0:	dfc00a17 	ldw	ra,40(sp)
    38d4:	df000917 	ldw	fp,36(sp)
    38d8:	ddc00817 	ldw	r23,32(sp)
    38dc:	dd800717 	ldw	r22,28(sp)
    38e0:	dd400617 	ldw	r21,24(sp)
    38e4:	dd000517 	ldw	r20,20(sp)
    38e8:	dcc00417 	ldw	r19,16(sp)
    38ec:	dc800317 	ldw	r18,12(sp)
    38f0:	dc400217 	ldw	r17,8(sp)
    38f4:	dc000117 	ldw	r16,4(sp)
    38f8:	dec00b04 	addi	sp,sp,44
    38fc:	1000683a 	jmp	r2
    3900:	e1400117 	ldw	r5,4(fp)
    3904:	99400726 	beq	r19,r5,3924 <_ZNK10__cxxabiv120__si_class_type_info12__do_dyncastEiNS_17__class_type_info10__sub_kindEPKS1_PKvS4_S6_RNS1_16__dyncast_resultE+0x144>
    3908:	bdc00aa0 	cmpeqi	r23,r23,42
    390c:	b83fe71e 	bne	r23,zero,38ac <_ZNK10__cxxabiv120__si_class_type_info12__do_dyncastEiNS_17__class_type_info10__sub_kindEPKS1_PKvS4_S6_RNS1_16__dyncast_resultE+0xcc>
    3910:	9809883a 	mov	r4,r19
    3914:	d9800015 	stw	r6,0(sp)
    3918:	00049980 	call	4998 <strcmp>
    391c:	d9800017 	ldw	r6,0(sp)
    3920:	103fe21e 	bne	r2,zero,38ac <_ZNK10__cxxabiv120__si_class_type_info12__do_dyncastEiNS_17__class_type_info10__sub_kindEPKS1_PKvS4_S6_RNS1_16__dyncast_resultE+0xcc>
    3924:	a9800215 	stw	r6,8(r21)
    3928:	003fd206 	br	3874 <_ZNK10__cxxabiv120__si_class_type_info12__do_dyncastEiNS_17__class_type_info10__sub_kindEPKS1_PKvS4_S6_RNS1_16__dyncast_resultE+0x94>
    392c:	00800184 	movi	r2,6
    3930:	003fcf06 	br	3870 <_ZNK10__cxxabiv120__si_class_type_info12__do_dyncastEiNS_17__class_type_info10__sub_kindEPKS1_PKvS4_S6_RNS1_16__dyncast_resultE+0x90>
    3934:	843fff98 	cmpnei	r16,r16,-2
    3938:	803fce1e 	bne	r16,zero,3874 <_ZNK10__cxxabiv120__si_class_type_info12__do_dyncastEiNS_17__class_type_info10__sub_kindEPKS1_PKvS4_S6_RNS1_16__dyncast_resultE+0x94>
    393c:	003fcb06 	br	386c <_ZNK10__cxxabiv120__si_class_type_info12__do_dyncastEiNS_17__class_type_info10__sub_kindEPKS1_PKvS4_S6_RNS1_16__dyncast_resultE+0x8c>

00003940 <_ZNK10__cxxabiv120__si_class_type_info20__do_find_public_srcEiPKvPKNS_17__class_type_infoES2_>:
    3940:	defffa04 	addi	sp,sp,-24
    3944:	dc800415 	stw	r18,16(sp)
    3948:	dc800617 	ldw	r18,24(sp)
    394c:	dc400315 	stw	r17,12(sp)
    3950:	dc000215 	stw	r16,8(sp)
    3954:	dfc00515 	stw	ra,20(sp)
    3958:	2021883a 	mov	r16,r4
    395c:	2823883a 	mov	r17,r5
    3960:	91800b26 	beq	r18,r6,3990 <_ZNK10__cxxabiv120__si_class_type_info20__do_find_public_srcEiPKvPKNS_17__class_type_infoES2_+0x50>
    3964:	81000217 	ldw	r4,8(r16)
    3968:	880b883a 	mov	r5,r17
    396c:	20800017 	ldw	r2,0(r4)
    3970:	dc800615 	stw	r18,24(sp)
    3974:	10800817 	ldw	r2,32(r2)
    3978:	dfc00517 	ldw	ra,20(sp)
    397c:	dc800417 	ldw	r18,16(sp)
    3980:	dc400317 	ldw	r17,12(sp)
    3984:	dc000217 	ldw	r16,8(sp)
    3988:	dec00604 	addi	sp,sp,24
    398c:	1000683a 	jmp	r2
    3990:	21000117 	ldw	r4,4(r4)
    3994:	39400117 	ldw	r5,4(r7)
    3998:	21400926 	beq	r4,r5,39c0 <_ZNK10__cxxabiv120__si_class_type_info20__do_find_public_srcEiPKvPKNS_17__class_type_infoES2_+0x80>
    399c:	20800007 	ldb	r2,0(r4)
    39a0:	10800aa0 	cmpeqi	r2,r2,42
    39a4:	103fef1e 	bne	r2,zero,3964 <_ZNK10__cxxabiv120__si_class_type_info20__do_find_public_srcEiPKvPKNS_17__class_type_infoES2_+0x24>
    39a8:	d9c00115 	stw	r7,4(sp)
    39ac:	d9800015 	stw	r6,0(sp)
    39b0:	00049980 	call	4998 <strcmp>
    39b4:	d9800017 	ldw	r6,0(sp)
    39b8:	d9c00117 	ldw	r7,4(sp)
    39bc:	103fe91e 	bne	r2,zero,3964 <_ZNK10__cxxabiv120__si_class_type_info20__do_find_public_srcEiPKvPKNS_17__class_type_infoES2_+0x24>
    39c0:	00800184 	movi	r2,6
    39c4:	dfc00517 	ldw	ra,20(sp)
    39c8:	dc800417 	ldw	r18,16(sp)
    39cc:	dc400317 	ldw	r17,12(sp)
    39d0:	dc000217 	ldw	r16,8(sp)
    39d4:	dec00604 	addi	sp,sp,24
    39d8:	f800283a 	ret

000039dc <_ZNK10__cxxabiv120__si_class_type_info11__do_upcastEPKNS_17__class_type_infoEPKvRNS1_15__upcast_resultE>:
    39dc:	defffb04 	addi	sp,sp,-20
    39e0:	dcc00315 	stw	r19,12(sp)
    39e4:	dc800215 	stw	r18,8(sp)
    39e8:	dc400115 	stw	r17,4(sp)
    39ec:	dc000015 	stw	r16,0(sp)
    39f0:	dfc00415 	stw	ra,16(sp)
    39f4:	2025883a 	mov	r18,r4
    39f8:	2827883a 	mov	r19,r5
    39fc:	3021883a 	mov	r16,r6
    3a00:	3823883a 	mov	r17,r7
    3a04:	0003b440 	call	3b44 <_ZNK10__cxxabiv117__class_type_info11__do_upcastEPKS0_PKvRNS0_15__upcast_resultE>
    3a08:	10c03fcc 	andi	r3,r2,255
    3a0c:	18000d1e 	bne	r3,zero,3a44 <_ZNK10__cxxabiv120__si_class_type_info11__do_upcastEPKNS_17__class_type_infoEPKvRNS1_15__upcast_resultE+0x68>
    3a10:	91000217 	ldw	r4,8(r18)
    3a14:	880f883a 	mov	r7,r17
    3a18:	800d883a 	mov	r6,r16
    3a1c:	20800017 	ldw	r2,0(r4)
    3a20:	980b883a 	mov	r5,r19
    3a24:	10800617 	ldw	r2,24(r2)
    3a28:	dfc00417 	ldw	ra,16(sp)
    3a2c:	dcc00317 	ldw	r19,12(sp)
    3a30:	dc800217 	ldw	r18,8(sp)
    3a34:	dc400117 	ldw	r17,4(sp)
    3a38:	dc000017 	ldw	r16,0(sp)
    3a3c:	dec00504 	addi	sp,sp,20
    3a40:	1000683a 	jmp	r2
    3a44:	dfc00417 	ldw	ra,16(sp)
    3a48:	dcc00317 	ldw	r19,12(sp)
    3a4c:	dc800217 	ldw	r18,8(sp)
    3a50:	dc400117 	ldw	r17,4(sp)
    3a54:	dc000017 	ldw	r16,0(sp)
    3a58:	dec00504 	addi	sp,sp,20
    3a5c:	f800283a 	ret

00003a60 <_ZNSt9type_infoD1Ev>:
    3a60:	f800283a 	ret

00003a64 <_ZNKSt9type_info14__is_pointer_pEv>:
    3a64:	0005883a 	mov	r2,zero
    3a68:	f800283a 	ret

00003a6c <_ZNK10__cxxabiv117__class_type_info11__do_upcastEPKS0_PPv>:
    3a6c:	20800017 	ldw	r2,0(r4)
    3a70:	defffa04 	addi	sp,sp,-24
    3a74:	dc000415 	stw	r16,16(sp)
    3a78:	10800617 	ldw	r2,24(r2)
    3a7c:	3021883a 	mov	r16,r6
    3a80:	31800017 	ldw	r6,0(r6)
    3a84:	00c00404 	movi	r3,16
    3a88:	dfc00515 	stw	ra,20(sp)
    3a8c:	d8000015 	stw	zero,0(sp)
    3a90:	d8000115 	stw	zero,4(sp)
    3a94:	d8c00215 	stw	r3,8(sp)
    3a98:	d8000315 	stw	zero,12(sp)
    3a9c:	d80f883a 	mov	r7,sp
    3aa0:	103ee83a 	callr	r2
    3aa4:	d8800117 	ldw	r2,4(sp)
    3aa8:	1080018c 	andi	r2,r2,6
    3aac:	10800198 	cmpnei	r2,r2,6
    3ab0:	1000071e 	bne	r2,zero,3ad0 <_ZNK10__cxxabiv117__class_type_info11__do_upcastEPKS0_PPv+0x64>
    3ab4:	d8c00017 	ldw	r3,0(sp)
    3ab8:	00800044 	movi	r2,1
    3abc:	80c00015 	stw	r3,0(r16)
    3ac0:	dfc00517 	ldw	ra,20(sp)
    3ac4:	dc000417 	ldw	r16,16(sp)
    3ac8:	dec00604 	addi	sp,sp,24
    3acc:	f800283a 	ret
    3ad0:	0005883a 	mov	r2,zero
    3ad4:	dfc00517 	ldw	ra,20(sp)
    3ad8:	dc000417 	ldw	r16,16(sp)
    3adc:	dec00604 	addi	sp,sp,24
    3ae0:	f800283a 	ret

00003ae4 <_ZNK10__cxxabiv117__class_type_info20__do_find_public_srcEiPKvPKS0_S2_>:
    3ae4:	d8c00017 	ldw	r3,0(sp)
    3ae8:	00800044 	movi	r2,1
    3aec:	19800126 	beq	r3,r6,3af4 <_ZNK10__cxxabiv117__class_type_info20__do_find_public_srcEiPKvPKS0_S2_+0x10>
    3af0:	f800283a 	ret
    3af4:	00800184 	movi	r2,6
    3af8:	f800283a 	ret

00003afc <_ZN10__cxxabiv117__class_type_infoD1Ev>:
    3afc:	00800034 	movhi	r2,0
    3b00:	10982404 	addi	r2,r2,24720
    3b04:	20800015 	stw	r2,0(r4)
    3b08:	0003a601 	jmpi	3a60 <_ZNSt9type_infoD1Ev>

00003b0c <_ZN10__cxxabiv117__class_type_infoD0Ev>:
    3b0c:	defffe04 	addi	sp,sp,-8
    3b10:	00800034 	movhi	r2,0
    3b14:	dc000015 	stw	r16,0(sp)
    3b18:	dfc00115 	stw	ra,4(sp)
    3b1c:	10982404 	addi	r2,r2,24720
    3b20:	20800015 	stw	r2,0(r4)
    3b24:	2021883a 	mov	r16,r4
    3b28:	0003a600 	call	3a60 <_ZNSt9type_infoD1Ev>
    3b2c:	01400204 	movi	r5,8
    3b30:	8009883a 	mov	r4,r16
    3b34:	dfc00117 	ldw	ra,4(sp)
    3b38:	dc000017 	ldw	r16,0(sp)
    3b3c:	dec00204 	addi	sp,sp,8
    3b40:	0003d101 	jmpi	3d10 <_ZdlPvj>

00003b44 <_ZNK10__cxxabiv117__class_type_info11__do_upcastEPKS0_PKvRNS0_15__upcast_resultE>:
    3b44:	21000117 	ldw	r4,4(r4)
    3b48:	29400117 	ldw	r5,4(r5)
    3b4c:	defffd04 	addi	sp,sp,-12
    3b50:	dc400115 	stw	r17,4(sp)
    3b54:	dc000015 	stw	r16,0(sp)
    3b58:	dfc00215 	stw	ra,8(sp)
    3b5c:	3023883a 	mov	r17,r6
    3b60:	3821883a 	mov	r16,r7
    3b64:	21400526 	beq	r4,r5,3b7c <_ZNK10__cxxabiv117__class_type_info11__do_upcastEPKS0_PKvRNS0_15__upcast_resultE+0x38>
    3b68:	20800007 	ldb	r2,0(r4)
    3b6c:	10800aa0 	cmpeqi	r2,r2,42
    3b70:	10000d1e 	bne	r2,zero,3ba8 <_ZNK10__cxxabiv117__class_type_info11__do_upcastEPKS0_PKvRNS0_15__upcast_resultE+0x64>
    3b74:	00049980 	call	4998 <strcmp>
    3b78:	10000b1e 	bne	r2,zero,3ba8 <_ZNK10__cxxabiv117__class_type_info11__do_upcastEPKS0_PKvRNS0_15__upcast_resultE+0x64>
    3b7c:	00800204 	movi	r2,8
    3b80:	80800315 	stw	r2,12(r16)
    3b84:	00800184 	movi	r2,6
    3b88:	80800115 	stw	r2,4(r16)
    3b8c:	84400015 	stw	r17,0(r16)
    3b90:	00800044 	movi	r2,1
    3b94:	dfc00217 	ldw	ra,8(sp)
    3b98:	dc400117 	ldw	r17,4(sp)
    3b9c:	dc000017 	ldw	r16,0(sp)
    3ba0:	dec00304 	addi	sp,sp,12
    3ba4:	f800283a 	ret
    3ba8:	0005883a 	mov	r2,zero
    3bac:	003ff906 	br	3b94 <_ZNK10__cxxabiv117__class_type_info11__do_upcastEPKS0_PKvRNS0_15__upcast_resultE+0x50>

00003bb0 <_ZNK10__cxxabiv117__class_type_info10__do_catchEPKSt9type_infoPPvj>:
    3bb0:	defffb04 	addi	sp,sp,-20
    3bb4:	dc800315 	stw	r18,12(sp)
    3bb8:	dc400215 	stw	r17,8(sp)
    3bbc:	2025883a 	mov	r18,r4
    3bc0:	2823883a 	mov	r17,r5
    3bc4:	21000117 	ldw	r4,4(r4)
    3bc8:	29400117 	ldw	r5,4(r5)
    3bcc:	dfc00415 	stw	ra,16(sp)
    3bd0:	dc000115 	stw	r16,4(sp)
    3bd4:	21400826 	beq	r4,r5,3bf8 <_ZNK10__cxxabiv117__class_type_info10__do_catchEPKSt9type_infoPPvj+0x48>
    3bd8:	20800007 	ldb	r2,0(r4)
    3bdc:	3821883a 	mov	r16,r7
    3be0:	10800aa0 	cmpeqi	r2,r2,42
    3be4:	10000b1e 	bne	r2,zero,3c14 <_ZNK10__cxxabiv117__class_type_info10__do_catchEPKSt9type_infoPPvj+0x64>
    3be8:	d9800015 	stw	r6,0(sp)
    3bec:	00049980 	call	4998 <strcmp>
    3bf0:	d9800017 	ldw	r6,0(sp)
    3bf4:	1000071e 	bne	r2,zero,3c14 <_ZNK10__cxxabiv117__class_type_info10__do_catchEPKSt9type_infoPPvj+0x64>
    3bf8:	00800044 	movi	r2,1
    3bfc:	dfc00417 	ldw	ra,16(sp)
    3c00:	dc800317 	ldw	r18,12(sp)
    3c04:	dc400217 	ldw	r17,8(sp)
    3c08:	dc000117 	ldw	r16,4(sp)
    3c0c:	dec00504 	addi	sp,sp,20
    3c10:	f800283a 	ret
    3c14:	81c00128 	cmpgeui	r7,r16,4
    3c18:	38000a1e 	bne	r7,zero,3c44 <_ZNK10__cxxabiv117__class_type_info10__do_catchEPKSt9type_infoPPvj+0x94>
    3c1c:	88800017 	ldw	r2,0(r17)
    3c20:	900b883a 	mov	r5,r18
    3c24:	8809883a 	mov	r4,r17
    3c28:	10800517 	ldw	r2,20(r2)
    3c2c:	dfc00417 	ldw	ra,16(sp)
    3c30:	dc800317 	ldw	r18,12(sp)
    3c34:	dc400217 	ldw	r17,8(sp)
    3c38:	dc000117 	ldw	r16,4(sp)
    3c3c:	dec00504 	addi	sp,sp,20
    3c40:	1000683a 	jmp	r2
    3c44:	0005883a 	mov	r2,zero
    3c48:	003fec06 	br	3bfc <_ZNK10__cxxabiv117__class_type_info10__do_catchEPKSt9type_infoPPvj+0x4c>

00003c4c <_ZNK10__cxxabiv117__class_type_info12__do_dyncastEiNS0_10__sub_kindEPKS0_PKvS3_S5_RNS0_16__dyncast_resultE>:
    3c4c:	defffa04 	addi	sp,sp,-24
    3c50:	dc400315 	stw	r17,12(sp)
    3c54:	d8800817 	ldw	r2,32(sp)
    3c58:	dc400617 	ldw	r17,24(sp)
    3c5c:	dc800415 	stw	r18,16(sp)
    3c60:	dc000215 	stw	r16,8(sp)
    3c64:	dfc00515 	stw	ra,20(sp)
    3c68:	dc800917 	ldw	r18,36(sp)
    3c6c:	21000117 	ldw	r4,4(r4)
    3c70:	3021883a 	mov	r16,r6
    3c74:	88801226 	beq	r17,r2,3cc0 <_ZNK10__cxxabiv117__class_type_info12__do_dyncastEiNS0_10__sub_kindEPKS0_PKvS3_S5_RNS0_16__dyncast_resultE+0x74>
    3c78:	39400117 	ldw	r5,4(r7)
    3c7c:	21400526 	beq	r4,r5,3c94 <_ZNK10__cxxabiv117__class_type_info12__do_dyncastEiNS0_10__sub_kindEPKS0_PKvS3_S5_RNS0_16__dyncast_resultE+0x48>
    3c80:	20800007 	ldb	r2,0(r4)
    3c84:	10800aa0 	cmpeqi	r2,r2,42
    3c88:	1000061e 	bne	r2,zero,3ca4 <_ZNK10__cxxabiv117__class_type_info12__do_dyncastEiNS0_10__sub_kindEPKS0_PKvS3_S5_RNS0_16__dyncast_resultE+0x58>
    3c8c:	00049980 	call	4998 <strcmp>
    3c90:	1000041e 	bne	r2,zero,3ca4 <_ZNK10__cxxabiv117__class_type_info12__do_dyncastEiNS0_10__sub_kindEPKS0_PKvS3_S5_RNS0_16__dyncast_resultE+0x58>
    3c94:	00800044 	movi	r2,1
    3c98:	94400015 	stw	r17,0(r18)
    3c9c:	94000115 	stw	r16,4(r18)
    3ca0:	90800315 	stw	r2,12(r18)
    3ca4:	0005883a 	mov	r2,zero
    3ca8:	dfc00517 	ldw	ra,20(sp)
    3cac:	dc800417 	ldw	r18,16(sp)
    3cb0:	dc400317 	ldw	r17,12(sp)
    3cb4:	dc000217 	ldw	r16,8(sp)
    3cb8:	dec00604 	addi	sp,sp,24
    3cbc:	f800283a 	ret
    3cc0:	d8800717 	ldw	r2,28(sp)
    3cc4:	11400117 	ldw	r5,4(r2)
    3cc8:	21400f26 	beq	r4,r5,3d08 <_ZNK10__cxxabiv117__class_type_info12__do_dyncastEiNS0_10__sub_kindEPKS0_PKvS3_S5_RNS0_16__dyncast_resultE+0xbc>
    3ccc:	20800007 	ldb	r2,0(r4)
    3cd0:	10800aa0 	cmpeqi	r2,r2,42
    3cd4:	1000091e 	bne	r2,zero,3cfc <_ZNK10__cxxabiv117__class_type_info12__do_dyncastEiNS0_10__sub_kindEPKS0_PKvS3_S5_RNS0_16__dyncast_resultE+0xb0>
    3cd8:	d9c00115 	stw	r7,4(sp)
    3cdc:	d9000015 	stw	r4,0(sp)
    3ce0:	00049980 	call	4998 <strcmp>
    3ce4:	d9000017 	ldw	r4,0(sp)
    3ce8:	d9c00117 	ldw	r7,4(sp)
    3cec:	10000626 	beq	r2,zero,3d08 <_ZNK10__cxxabiv117__class_type_info12__do_dyncastEiNS0_10__sub_kindEPKS0_PKvS3_S5_RNS0_16__dyncast_resultE+0xbc>
    3cf0:	39400117 	ldw	r5,4(r7)
    3cf4:	217fe51e 	bne	r4,r5,3c8c <_ZNK10__cxxabiv117__class_type_info12__do_dyncastEiNS0_10__sub_kindEPKS0_PKvS3_S5_RNS0_16__dyncast_resultE+0x40>
    3cf8:	003fe606 	br	3c94 <_ZNK10__cxxabiv117__class_type_info12__do_dyncastEiNS0_10__sub_kindEPKS0_PKvS3_S5_RNS0_16__dyncast_resultE+0x48>
    3cfc:	38800117 	ldw	r2,4(r7)
    3d00:	20bfe81e 	bne	r4,r2,3ca4 <_ZNK10__cxxabiv117__class_type_info12__do_dyncastEiNS0_10__sub_kindEPKS0_PKvS3_S5_RNS0_16__dyncast_resultE+0x58>
    3d04:	003fe306 	br	3c94 <_ZNK10__cxxabiv117__class_type_info12__do_dyncastEiNS0_10__sub_kindEPKS0_PKvS3_S5_RNS0_16__dyncast_resultE+0x48>
    3d08:	94000215 	stw	r16,8(r18)
    3d0c:	003fe506 	br	3ca4 <_ZNK10__cxxabiv117__class_type_info12__do_dyncastEiNS0_10__sub_kindEPKS0_PKvS3_S5_RNS0_16__dyncast_resultE+0x58>

00003d10 <_ZdlPvj>:
    3d10:	0003d141 	jmpi	3d14 <_ZdlPv>

00003d14 <_ZdlPv>:
    3d14:	00044dc1 	jmpi	44dc <free>

00003d18 <fmaxf>:
    3d18:	defffd04 	addi	sp,sp,-12
    3d1c:	dc400115 	stw	r17,4(sp)
    3d20:	dc000015 	stw	r16,0(sp)
    3d24:	dfc00215 	stw	ra,8(sp)
    3d28:	2023883a 	mov	r17,r4
    3d2c:	2821883a 	mov	r16,r5
    3d30:	0003dd00 	call	3dd0 <__fpclassifyf>
    3d34:	1000061e 	bne	r2,zero,3d50 <fmaxf+0x38>
    3d38:	8005883a 	mov	r2,r16
    3d3c:	dfc00217 	ldw	ra,8(sp)
    3d40:	dc400117 	ldw	r17,4(sp)
    3d44:	dc000017 	ldw	r16,0(sp)
    3d48:	dec00304 	addi	sp,sp,12
    3d4c:	f800283a 	ret
    3d50:	8009883a 	mov	r4,r16
    3d54:	0003dd00 	call	3dd0 <__fpclassifyf>
    3d58:	10000426 	beq	r2,zero,3d6c <fmaxf+0x54>
    3d5c:	800b883a 	mov	r5,r16
    3d60:	8809883a 	mov	r4,r17
    3d64:	0003e240 	call	3e24 <__gesf2>
    3d68:	00bff30e 	bge	zero,r2,3d38 <fmaxf+0x20>
    3d6c:	8805883a 	mov	r2,r17
    3d70:	003ff206 	br	3d3c <fmaxf+0x24>

00003d74 <fminf>:
    3d74:	defffd04 	addi	sp,sp,-12
    3d78:	dc400115 	stw	r17,4(sp)
    3d7c:	dc000015 	stw	r16,0(sp)
    3d80:	dfc00215 	stw	ra,8(sp)
    3d84:	2023883a 	mov	r17,r4
    3d88:	2821883a 	mov	r16,r5
    3d8c:	0003dd00 	call	3dd0 <__fpclassifyf>
    3d90:	1000061e 	bne	r2,zero,3dac <fminf+0x38>
    3d94:	8005883a 	mov	r2,r16
    3d98:	dfc00217 	ldw	ra,8(sp)
    3d9c:	dc400117 	ldw	r17,4(sp)
    3da0:	dc000017 	ldw	r16,0(sp)
    3da4:	dec00304 	addi	sp,sp,12
    3da8:	f800283a 	ret
    3dac:	8009883a 	mov	r4,r16
    3db0:	0003dd00 	call	3dd0 <__fpclassifyf>
    3db4:	10000426 	beq	r2,zero,3dc8 <fminf+0x54>
    3db8:	800b883a 	mov	r5,r16
    3dbc:	8809883a 	mov	r4,r17
    3dc0:	0003edc0 	call	3edc <__lesf2>
    3dc4:	103ff30e 	bge	r2,zero,3d94 <fminf+0x20>
    3dc8:	8805883a 	mov	r2,r17
    3dcc:	003ff206 	br	3d98 <fminf+0x24>

00003dd0 <__fpclassifyf>:
    3dd0:	00a00034 	movhi	r2,32768
    3dd4:	10bfffc4 	addi	r2,r2,-1
    3dd8:	2088703a 	and	r4,r4,r2
    3ddc:	20000b26 	beq	r4,zero,3e0c <__fpclassifyf+0x3c>
    3de0:	00bfe034 	movhi	r2,65408
    3de4:	2085883a 	add	r2,r4,r2
    3de8:	00dfc034 	movhi	r3,32512
    3dec:	10c00b36 	bltu	r2,r3,3e1c <__fpclassifyf+0x4c>
    3df0:	00c02034 	movhi	r3,128
    3df4:	20bfffc4 	addi	r2,r4,-1
    3df8:	18ffff84 	addi	r3,r3,-2
    3dfc:	1880052e 	bgeu	r3,r2,3e14 <__fpclassifyf+0x44>
    3e00:	009fe034 	movhi	r2,32640
    3e04:	2085003a 	cmpeq	r2,r4,r2
    3e08:	f800283a 	ret
    3e0c:	00800084 	movi	r2,2
    3e10:	f800283a 	ret
    3e14:	008000c4 	movi	r2,3
    3e18:	f800283a 	ret
    3e1c:	00800104 	movi	r2,4
    3e20:	f800283a 	ret

00003e24 <__gesf2>:
    3e24:	200cd5fa 	srli	r6,r4,23
    3e28:	280ed5fa 	srli	r7,r5,23
    3e2c:	00c02034 	movhi	r3,128
    3e30:	31803fcc 	andi	r6,r6,255
    3e34:	18ffffc4 	addi	r3,r3,-1
    3e38:	32003fd8 	cmpnei	r8,r6,255
    3e3c:	2012d7fa 	srli	r9,r4,31
    3e40:	2804d7fa 	srli	r2,r5,31
    3e44:	1908703a 	and	r4,r3,r4
    3e48:	1946703a 	and	r3,r3,r5
    3e4c:	39403fcc 	andi	r5,r7,255
    3e50:	40000826 	beq	r8,zero,3e74 <__gesf2+0x50>
    3e54:	29c03fd8 	cmpnei	r7,r5,255
    3e58:	38000926 	beq	r7,zero,3e80 <__gesf2+0x5c>
    3e5c:	3000121e 	bne	r6,zero,3ea8 <__gesf2+0x84>
    3e60:	28000e1e 	bne	r5,zero,3e9c <__gesf2+0x78>
    3e64:	18000d1e 	bne	r3,zero,3e9c <__gesf2+0x78>
    3e68:	2000081e 	bne	r4,zero,3e8c <__gesf2+0x68>
    3e6c:	0005883a 	mov	r2,zero
    3e70:	f800283a 	ret
    3e74:	2000171e 	bne	r4,zero,3ed4 <__gesf2+0xb0>
    3e78:	29c03fe0 	cmpeqi	r7,r5,255
    3e7c:	38000a26 	beq	r7,zero,3ea8 <__gesf2+0x84>
    3e80:	1800141e 	bne	r3,zero,3ed4 <__gesf2+0xb0>
    3e84:	30000526 	beq	r6,zero,3e9c <__gesf2+0x78>
    3e88:	48800a26 	beq	r9,r2,3eb4 <__gesf2+0x90>
    3e8c:	00800044 	movi	r2,1
    3e90:	48000426 	beq	r9,zero,3ea4 <__gesf2+0x80>
    3e94:	00bfffc4 	movi	r2,-1
    3e98:	f800283a 	ret
    3e9c:	203ffa1e 	bne	r4,zero,3e88 <__gesf2+0x64>
    3ea0:	103ffc26 	beq	r2,zero,3e94 <__gesf2+0x70>
    3ea4:	f800283a 	ret
    3ea8:	283ff71e 	bne	r5,zero,3e88 <__gesf2+0x64>
    3eac:	183ff61e 	bne	r3,zero,3e88 <__gesf2+0x64>
    3eb0:	003ff606 	br	3e8c <__gesf2+0x68>
    3eb4:	29800416 	blt	r5,r6,3ec8 <__gesf2+0xa4>
    3eb8:	317ff916 	blt	r6,r5,3ea0 <__gesf2+0x7c>
    3ebc:	19000236 	bltu	r3,r4,3ec8 <__gesf2+0xa4>
    3ec0:	20ffea2e 	bgeu	r4,r3,3e6c <__gesf2+0x48>
    3ec4:	003ff606 	br	3ea0 <__gesf2+0x7c>
    3ec8:	103ff21e 	bne	r2,zero,3e94 <__gesf2+0x70>
    3ecc:	00800044 	movi	r2,1
    3ed0:	f800283a 	ret
    3ed4:	00bfff84 	movi	r2,-2
    3ed8:	f800283a 	ret

00003edc <__lesf2>:
    3edc:	200cd5fa 	srli	r6,r4,23
    3ee0:	280ed5fa 	srli	r7,r5,23
    3ee4:	00c02034 	movhi	r3,128
    3ee8:	31803fcc 	andi	r6,r6,255
    3eec:	18ffffc4 	addi	r3,r3,-1
    3ef0:	32003fd8 	cmpnei	r8,r6,255
    3ef4:	2012d7fa 	srli	r9,r4,31
    3ef8:	2804d7fa 	srli	r2,r5,31
    3efc:	1908703a 	and	r4,r3,r4
    3f00:	1946703a 	and	r3,r3,r5
    3f04:	39403fcc 	andi	r5,r7,255
    3f08:	40000826 	beq	r8,zero,3f2c <__lesf2+0x50>
    3f0c:	29c03fd8 	cmpnei	r7,r5,255
    3f10:	38000926 	beq	r7,zero,3f38 <__lesf2+0x5c>
    3f14:	3000181e 	bne	r6,zero,3f78 <__lesf2+0x9c>
    3f18:	2800091e 	bne	r5,zero,3f40 <__lesf2+0x64>
    3f1c:	1800081e 	bne	r3,zero,3f40 <__lesf2+0x64>
    3f20:	2000091e 	bne	r4,zero,3f48 <__lesf2+0x6c>
    3f24:	0005883a 	mov	r2,zero
    3f28:	f800283a 	ret
    3f2c:	20000a1e 	bne	r4,zero,3f58 <__lesf2+0x7c>
    3f30:	29c03fe0 	cmpeqi	r7,r5,255
    3f34:	38001026 	beq	r7,zero,3f78 <__lesf2+0x9c>
    3f38:	1800071e 	bne	r3,zero,3f58 <__lesf2+0x7c>
    3f3c:	3000011e 	bne	r6,zero,3f44 <__lesf2+0x68>
    3f40:	20000b26 	beq	r4,zero,3f70 <__lesf2+0x94>
    3f44:	48800626 	beq	r9,r2,3f60 <__lesf2+0x84>
    3f48:	00800044 	movi	r2,1
    3f4c:	48000926 	beq	r9,zero,3f74 <__lesf2+0x98>
    3f50:	00bfffc4 	movi	r2,-1
    3f54:	f800283a 	ret
    3f58:	00800084 	movi	r2,2
    3f5c:	f800283a 	ret
    3f60:	29800816 	blt	r5,r6,3f84 <__lesf2+0xa8>
    3f64:	31400216 	blt	r6,r5,3f70 <__lesf2+0x94>
    3f68:	19000636 	bltu	r3,r4,3f84 <__lesf2+0xa8>
    3f6c:	20ffed2e 	bgeu	r4,r3,3f24 <__lesf2+0x48>
    3f70:	103ff726 	beq	r2,zero,3f50 <__lesf2+0x74>
    3f74:	f800283a 	ret
    3f78:	283ff21e 	bne	r5,zero,3f44 <__lesf2+0x68>
    3f7c:	183ff11e 	bne	r3,zero,3f44 <__lesf2+0x68>
    3f80:	003ff106 	br	3f48 <__lesf2+0x6c>
    3f84:	103ff21e 	bne	r2,zero,3f50 <__lesf2+0x74>
    3f88:	00800044 	movi	r2,1
    3f8c:	f800283a 	ret

00003f90 <_Unwind_ForcedUnwind_Phase2>:
    3f90:	28800017 	ldw	r2,0(r5)
    3f94:	defff504 	addi	sp,sp,-44
    3f98:	dd400815 	stw	r21,32(sp)
    3f9c:	dd000715 	stw	r20,28(sp)
    3fa0:	dcc00615 	stw	r19,24(sp)
    3fa4:	dc800515 	stw	r18,20(sp)
    3fa8:	dc400415 	stw	r17,16(sp)
    3fac:	dc000315 	stw	r16,12(sp)
    3fb0:	dfc00a15 	stw	ra,40(sp)
    3fb4:	dd800915 	stw	r22,36(sp)
    3fb8:	302b883a 	mov	r21,r6
    3fbc:	24c00317 	ldw	r19,12(r4)
    3fc0:	25000417 	ldw	r20,16(r4)
    3fc4:	21800017 	ldw	r6,0(r4)
    3fc8:	21c00117 	ldw	r7,4(r4)
    3fcc:	2823883a 	mov	r17,r5
    3fd0:	2021883a 	mov	r16,r4
    3fd4:	04800044 	movi	r18,1
    3fd8:	10001d26 	beq	r2,zero,4050 <_Unwind_ForcedUnwind_Phase2+0xc0>
    3fdc:	15800617 	ldw	r22,24(r2)
    3fe0:	01400284 	movi	r5,10
    3fe4:	01000044 	movi	r4,1
    3fe8:	dd000215 	stw	r20,8(sp)
    3fec:	dc400115 	stw	r17,4(sp)
    3ff0:	dc000015 	stw	r16,0(sp)
    3ff4:	983ee83a 	callr	r19
    3ff8:	01400284 	movi	r5,10
    3ffc:	01000044 	movi	r4,1
    4000:	10001a1e 	bne	r2,zero,406c <_Unwind_ForcedUnwind_Phase2+0xdc>
    4004:	81800017 	ldw	r6,0(r16)
    4008:	81c00117 	ldw	r7,4(r16)
    400c:	b0000926 	beq	r22,zero,4034 <_Unwind_ForcedUnwind_Phase2+0xa4>
    4010:	dc400115 	stw	r17,4(sp)
    4014:	dc000015 	stw	r16,0(sp)
    4018:	b03ee83a 	callr	r22
    401c:	10c001e0 	cmpeqi	r3,r2,7
    4020:	11000218 	cmpnei	r4,r2,8
    4024:	18001d1e 	bne	r3,zero,409c <_Unwind_ForcedUnwind_Phase2+0x10c>
    4028:	2000101e 	bne	r4,zero,406c <_Unwind_ForcedUnwind_Phase2+0xdc>
    402c:	81800017 	ldw	r6,0(r16)
    4030:	81c00117 	ldw	r7,4(r16)
    4034:	88800017 	ldw	r2,0(r17)
    4038:	00c00074 	movhi	r3,1
    403c:	94800044 	addi	r18,r18,1
    4040:	10800017 	ldw	r2,0(r2)
    4044:	18a0b515 	stw	r2,-32044(r3)
    4048:	88800015 	stw	r2,0(r17)
    404c:	103fe31e 	bne	r2,zero,3fdc <_Unwind_ForcedUnwind_Phase2+0x4c>
    4050:	dd000215 	stw	r20,8(sp)
    4054:	dc400115 	stw	r17,4(sp)
    4058:	dc000015 	stw	r16,0(sp)
    405c:	01400684 	movi	r5,26
    4060:	01000044 	movi	r4,1
    4064:	983ee83a 	callr	r19
    4068:	10000b26 	beq	r2,zero,4098 <_Unwind_ForcedUnwind_Phase2+0x108>
    406c:	00800084 	movi	r2,2
    4070:	dfc00a17 	ldw	ra,40(sp)
    4074:	dd800917 	ldw	r22,36(sp)
    4078:	dd400817 	ldw	r21,32(sp)
    407c:	dd000717 	ldw	r20,28(sp)
    4080:	dcc00617 	ldw	r19,24(sp)
    4084:	dc800517 	ldw	r18,20(sp)
    4088:	dc400417 	ldw	r17,16(sp)
    408c:	dc000317 	ldw	r16,12(sp)
    4090:	dec00b04 	addi	sp,sp,44
    4094:	f800283a 	ret
    4098:	00800144 	movi	r2,5
    409c:	ac800015 	stw	r18,0(r21)
    40a0:	003ff306 	br	4070 <_Unwind_ForcedUnwind_Phase2+0xe0>

000040a4 <_Unwind_RaiseException_Phase2>:
    40a4:	28800017 	ldw	r2,0(r5)
    40a8:	10002f26 	beq	r2,zero,4168 <_Unwind_RaiseException_Phase2+0xc4>
    40ac:	defff804 	addi	sp,sp,-32
    40b0:	dcc00515 	stw	r19,20(sp)
    40b4:	dc800415 	stw	r18,16(sp)
    40b8:	dc400315 	stw	r17,12(sp)
    40bc:	dc000215 	stw	r16,8(sp)
    40c0:	dfc00715 	stw	ra,28(sp)
    40c4:	dd000615 	stw	r20,24(sp)
    40c8:	2823883a 	mov	r17,r5
    40cc:	2021883a 	mov	r16,r4
    40d0:	3027883a 	mov	r19,r6
    40d4:	04800044 	movi	r18,1
    40d8:	00001306 	br	4128 <_Unwind_RaiseException_Phase2+0x84>
    40dc:	18000e26 	beq	r3,zero,4118 <_Unwind_RaiseException_Phase2+0x74>
    40e0:	01400084 	movi	r5,2
    40e4:	0029883a 	mov	r20,zero
    40e8:	81800017 	ldw	r6,0(r16)
    40ec:	81c00117 	ldw	r7,4(r16)
    40f0:	01000044 	movi	r4,1
    40f4:	dc400115 	stw	r17,4(sp)
    40f8:	dc000015 	stw	r16,0(sp)
    40fc:	183ee83a 	callr	r3
    4100:	10c001e0 	cmpeqi	r3,r2,7
    4104:	18001a1e 	bne	r3,zero,4170 <_Unwind_RaiseException_Phase2+0xcc>
    4108:	10800218 	cmpnei	r2,r2,8
    410c:	10000d1e 	bne	r2,zero,4144 <_Unwind_RaiseException_Phase2+0xa0>
    4110:	a000191e 	bne	r20,zero,4178 <_Unwind_RaiseException_Phase2+0xd4>
    4114:	88800017 	ldw	r2,0(r17)
    4118:	10800017 	ldw	r2,0(r2)
    411c:	94800044 	addi	r18,r18,1
    4120:	88800015 	stw	r2,0(r17)
    4124:	10000726 	beq	r2,zero,4144 <_Unwind_RaiseException_Phase2+0xa0>
    4128:	81000417 	ldw	r4,16(r16)
    412c:	10c00617 	ldw	r3,24(r2)
    4130:	113fea1e 	bne	r2,r4,40dc <_Unwind_RaiseException_Phase2+0x38>
    4134:	18001026 	beq	r3,zero,4178 <_Unwind_RaiseException_Phase2+0xd4>
    4138:	01400184 	movi	r5,6
    413c:	05000104 	movi	r20,4
    4140:	003fe906 	br	40e8 <_Unwind_RaiseException_Phase2+0x44>
    4144:	00800084 	movi	r2,2
    4148:	dfc00717 	ldw	ra,28(sp)
    414c:	dd000617 	ldw	r20,24(sp)
    4150:	dcc00517 	ldw	r19,20(sp)
    4154:	dc800417 	ldw	r18,16(sp)
    4158:	dc400317 	ldw	r17,12(sp)
    415c:	dc000217 	ldw	r16,8(sp)
    4160:	dec00804 	addi	sp,sp,32
    4164:	f800283a 	ret
    4168:	00800084 	movi	r2,2
    416c:	f800283a 	ret
    4170:	9c800015 	stw	r18,0(r19)
    4174:	003ff406 	br	4148 <_Unwind_RaiseException_Phase2+0xa4>
    4178:	00044b40 	call	44b4 <abort>

0000417c <uw_install_context.constprop.0.isra.0>:
    417c:	deffff04 	addi	sp,sp,-4
    4180:	df000015 	stw	fp,0(sp)
    4184:	20800804 	addi	r2,r4,32
    4188:	00c00074 	movhi	r3,1
    418c:	1920b515 	stw	r4,-32044(r3)
    4190:	d839883a 	mov	fp,sp
    4194:	20c00917 	ldw	r3,36(r4)
    4198:	21000817 	ldw	r4,32(r4)
    419c:	16c00217 	ldw	sp,8(r2)
    41a0:	2039883a 	mov	fp,r4
    41a4:	1800683a 	jmp	r3

000041a8 <_Unwind_SjLj_Register>:
    41a8:	00800074 	movhi	r2,1
    41ac:	10a0b517 	ldw	r2,-32044(r2)
    41b0:	20800015 	stw	r2,0(r4)
    41b4:	00800074 	movhi	r2,1
    41b8:	1120b515 	stw	r4,-32044(r2)
    41bc:	f800283a 	ret

000041c0 <_Unwind_SjLj_Unregister>:
    41c0:	20c00017 	ldw	r3,0(r4)
    41c4:	00800074 	movhi	r2,1
    41c8:	10e0b515 	stw	r3,-32044(r2)
    41cc:	f800283a 	ret

000041d0 <_Unwind_GetGR>:
    41d0:	29400084 	addi	r5,r5,2
    41d4:	20800017 	ldw	r2,0(r4)
    41d8:	280a90ba 	slli	r5,r5,2
    41dc:	114b883a 	add	r5,r2,r5
    41e0:	28800017 	ldw	r2,0(r5)
    41e4:	f800283a 	ret

000041e8 <_Unwind_GetCFA>:
    41e8:	20800017 	ldw	r2,0(r4)
    41ec:	10000226 	beq	r2,zero,41f8 <_Unwind_GetCFA+0x10>
    41f0:	10800a17 	ldw	r2,40(r2)
    41f4:	f800283a 	ret
    41f8:	0005883a 	mov	r2,zero
    41fc:	f800283a 	ret

00004200 <_Unwind_SetGR>:
    4200:	29400084 	addi	r5,r5,2
    4204:	20800017 	ldw	r2,0(r4)
    4208:	280a90ba 	slli	r5,r5,2
    420c:	114b883a 	add	r5,r2,r5
    4210:	29800015 	stw	r6,0(r5)
    4214:	f800283a 	ret

00004218 <_Unwind_GetIP>:
    4218:	20800017 	ldw	r2,0(r4)
    421c:	10800117 	ldw	r2,4(r2)
    4220:	10800044 	addi	r2,r2,1
    4224:	f800283a 	ret

00004228 <_Unwind_GetIPInfo>:
    4228:	20800017 	ldw	r2,0(r4)
    422c:	28000015 	stw	zero,0(r5)
    4230:	10000326 	beq	r2,zero,4240 <_Unwind_GetIPInfo+0x18>
    4234:	10800117 	ldw	r2,4(r2)
    4238:	10800044 	addi	r2,r2,1
    423c:	f800283a 	ret
    4240:	0005883a 	mov	r2,zero
    4244:	f800283a 	ret

00004248 <_Unwind_SetIP>:
    4248:	20800017 	ldw	r2,0(r4)
    424c:	297fffc4 	addi	r5,r5,-1
    4250:	11400115 	stw	r5,4(r2)
    4254:	f800283a 	ret

00004258 <_Unwind_GetLanguageSpecificData>:
    4258:	20800017 	ldw	r2,0(r4)
    425c:	10800717 	ldw	r2,28(r2)
    4260:	f800283a 	ret

00004264 <_Unwind_GetRegionStart>:
    4264:	0005883a 	mov	r2,zero
    4268:	f800283a 	ret

0000426c <_Unwind_FindEnclosingFunction>:
    426c:	0005883a 	mov	r2,zero
    4270:	f800283a 	ret

00004274 <_Unwind_GetDataRelBase>:
    4274:	0005883a 	mov	r2,zero
    4278:	f800283a 	ret

0000427c <_Unwind_GetTextRelBase>:
    427c:	0005883a 	mov	r2,zero
    4280:	f800283a 	ret

00004284 <_Unwind_SjLj_RaiseException>:
    4284:	defff804 	addi	sp,sp,-32
    4288:	00800074 	movhi	r2,1
    428c:	dc400515 	stw	r17,20(sp)
    4290:	1460b517 	ldw	r17,-32044(r2)
    4294:	dfc00715 	stw	ra,28(sp)
    4298:	dc800615 	stw	r18,24(sp)
    429c:	dc000415 	stw	r16,16(sp)
    42a0:	dc400215 	stw	r17,8(sp)
    42a4:	88001426 	beq	r17,zero,42f8 <_Unwind_SjLj_RaiseException+0x74>
    42a8:	2021883a 	mov	r16,r4
    42ac:	8805883a 	mov	r2,r17
    42b0:	dc800204 	addi	r18,sp,8
    42b4:	10800617 	ldw	r2,24(r2)
    42b8:	10000b26 	beq	r2,zero,42e8 <_Unwind_SjLj_RaiseException+0x64>
    42bc:	81800017 	ldw	r6,0(r16)
    42c0:	81c00117 	ldw	r7,4(r16)
    42c4:	01400044 	movi	r5,1
    42c8:	dc800115 	stw	r18,4(sp)
    42cc:	dc000015 	stw	r16,0(sp)
    42d0:	01000044 	movi	r4,1
    42d4:	103ee83a 	callr	r2
    42d8:	10c001a0 	cmpeqi	r3,r2,6
    42dc:	18000d1e 	bne	r3,zero,4314 <_Unwind_SjLj_RaiseException+0x90>
    42e0:	10800218 	cmpnei	r2,r2,8
    42e4:	1000171e 	bne	r2,zero,4344 <_Unwind_SjLj_RaiseException+0xc0>
    42e8:	d8800217 	ldw	r2,8(sp)
    42ec:	10800017 	ldw	r2,0(r2)
    42f0:	d8800215 	stw	r2,8(sp)
    42f4:	103fef1e 	bne	r2,zero,42b4 <_Unwind_SjLj_RaiseException+0x30>
    42f8:	00800144 	movi	r2,5
    42fc:	dfc00717 	ldw	ra,28(sp)
    4300:	dc800617 	ldw	r18,24(sp)
    4304:	dc400517 	ldw	r17,20(sp)
    4308:	dc000417 	ldw	r16,16(sp)
    430c:	dec00804 	addi	sp,sp,32
    4310:	f800283a 	ret
    4314:	d8800217 	ldw	r2,8(sp)
    4318:	80000315 	stw	zero,12(r16)
    431c:	d9800304 	addi	r6,sp,12
    4320:	80800415 	stw	r2,16(r16)
    4324:	900b883a 	mov	r5,r18
    4328:	8009883a 	mov	r4,r16
    432c:	dc400215 	stw	r17,8(sp)
    4330:	00040a40 	call	40a4 <_Unwind_RaiseException_Phase2>
    4334:	10c001d8 	cmpnei	r3,r2,7
    4338:	183ff01e 	bne	r3,zero,42fc <_Unwind_SjLj_RaiseException+0x78>
    433c:	d9000217 	ldw	r4,8(sp)
    4340:	000417c0 	call	417c <uw_install_context.constprop.0.isra.0>
    4344:	008000c4 	movi	r2,3
    4348:	003fec06 	br	42fc <_Unwind_SjLj_RaiseException+0x78>

0000434c <_Unwind_SjLj_ForcedUnwind>:
    434c:	00800074 	movhi	r2,1
    4350:	defffd04 	addi	sp,sp,-12
    4354:	10e0b517 	ldw	r3,-32044(r2)
    4358:	dfc00215 	stw	ra,8(sp)
    435c:	21400315 	stw	r5,12(r4)
    4360:	21800415 	stw	r6,16(r4)
    4364:	d80b883a 	mov	r5,sp
    4368:	d9800104 	addi	r6,sp,4
    436c:	d8c00015 	stw	r3,0(sp)
    4370:	0003f900 	call	3f90 <_Unwind_ForcedUnwind_Phase2>
    4374:	10c001e0 	cmpeqi	r3,r2,7
    4378:	1800031e 	bne	r3,zero,4388 <_Unwind_SjLj_ForcedUnwind+0x3c>
    437c:	dfc00217 	ldw	ra,8(sp)
    4380:	dec00304 	addi	sp,sp,12
    4384:	f800283a 	ret
    4388:	d9000017 	ldw	r4,0(sp)
    438c:	000417c0 	call	417c <uw_install_context.constprop.0.isra.0>

00004390 <_Unwind_SjLj_Resume>:
    4390:	00800074 	movhi	r2,1
    4394:	10e0b517 	ldw	r3,-32044(r2)
    4398:	20800317 	ldw	r2,12(r4)
    439c:	defffd04 	addi	sp,sp,-12
    43a0:	dfc00215 	stw	ra,8(sp)
    43a4:	d8c00015 	stw	r3,0(sp)
    43a8:	d9800104 	addi	r6,sp,4
    43ac:	d80b883a 	mov	r5,sp
    43b0:	1000051e 	bne	r2,zero,43c8 <_Unwind_SjLj_Resume+0x38>
    43b4:	00040a40 	call	40a4 <_Unwind_RaiseException_Phase2>
    43b8:	108001e0 	cmpeqi	r2,r2,7
    43bc:	10000426 	beq	r2,zero,43d0 <_Unwind_SjLj_Resume+0x40>
    43c0:	d9000017 	ldw	r4,0(sp)
    43c4:	000417c0 	call	417c <uw_install_context.constprop.0.isra.0>
    43c8:	0003f900 	call	3f90 <_Unwind_ForcedUnwind_Phase2>
    43cc:	003ffa06 	br	43b8 <_Unwind_SjLj_Resume+0x28>
    43d0:	00044b40 	call	44b4 <abort>

000043d4 <_Unwind_SjLj_Resume_or_Rethrow>:
    43d4:	20800317 	ldw	r2,12(r4)
    43d8:	1000011e 	bne	r2,zero,43e0 <_Unwind_SjLj_Resume_or_Rethrow+0xc>
    43dc:	00042841 	jmpi	4284 <_Unwind_SjLj_RaiseException>
    43e0:	00800074 	movhi	r2,1
    43e4:	10a0b517 	ldw	r2,-32044(r2)
    43e8:	defffd04 	addi	sp,sp,-12
    43ec:	d9800104 	addi	r6,sp,4
    43f0:	d80b883a 	mov	r5,sp
    43f4:	dfc00215 	stw	ra,8(sp)
    43f8:	d8800015 	stw	r2,0(sp)
    43fc:	0003f900 	call	3f90 <_Unwind_ForcedUnwind_Phase2>
    4400:	108001e0 	cmpeqi	r2,r2,7
    4404:	10000226 	beq	r2,zero,4410 <_Unwind_SjLj_Resume_or_Rethrow+0x3c>
    4408:	d9000017 	ldw	r4,0(sp)
    440c:	000417c0 	call	417c <uw_install_context.constprop.0.isra.0>
    4410:	00044b40 	call	44b4 <abort>

00004414 <_Unwind_DeleteException>:
    4414:	20800217 	ldw	r2,8(r4)
    4418:	200b883a 	mov	r5,r4
    441c:	10000226 	beq	r2,zero,4428 <_Unwind_DeleteException+0x14>
    4420:	01000044 	movi	r4,1
    4424:	1000683a 	jmp	r2
    4428:	f800283a 	ret

0000442c <_Unwind_Backtrace>:
    442c:	00800074 	movhi	r2,1
    4430:	10a0b517 	ldw	r2,-32044(r2)
    4434:	defffb04 	addi	sp,sp,-20
    4438:	dc800315 	stw	r18,12(sp)
    443c:	dc400215 	stw	r17,8(sp)
    4440:	dc000115 	stw	r16,4(sp)
    4444:	dfc00415 	stw	ra,16(sp)
    4448:	d8800015 	stw	r2,0(sp)
    444c:	2021883a 	mov	r16,r4
    4450:	2823883a 	mov	r17,r5
    4454:	d825883a 	mov	r18,sp
    4458:	10000826 	beq	r2,zero,447c <_Unwind_Backtrace+0x50>
    445c:	880b883a 	mov	r5,r17
    4460:	9009883a 	mov	r4,r18
    4464:	803ee83a 	callr	r16
    4468:	1000101e 	bne	r2,zero,44ac <_Unwind_Backtrace+0x80>
    446c:	d8800017 	ldw	r2,0(sp)
    4470:	10800017 	ldw	r2,0(r2)
    4474:	d8800015 	stw	r2,0(sp)
    4478:	103ff81e 	bne	r2,zero,445c <_Unwind_Backtrace+0x30>
    447c:	880b883a 	mov	r5,r17
    4480:	9009883a 	mov	r4,r18
    4484:	803ee83a 	callr	r16
    4488:	00c00144 	movi	r3,5
    448c:	1000071e 	bne	r2,zero,44ac <_Unwind_Backtrace+0x80>
    4490:	1805883a 	mov	r2,r3
    4494:	dfc00417 	ldw	ra,16(sp)
    4498:	dc800317 	ldw	r18,12(sp)
    449c:	dc400217 	ldw	r17,8(sp)
    44a0:	dc000117 	ldw	r16,4(sp)
    44a4:	dec00504 	addi	sp,sp,20
    44a8:	f800283a 	ret
    44ac:	00c000c4 	movi	r3,3
    44b0:	003ff706 	br	4490 <_Unwind_Backtrace+0x64>

000044b4 <abort>:
    44b4:	deffff04 	addi	sp,sp,-4
    44b8:	01000184 	movi	r4,6
    44bc:	dfc00015 	stw	ra,0(sp)
    44c0:	00049380 	call	4938 <raise>
    44c4:	01000044 	movi	r4,1
    44c8:	000000c0 	call	c <_exit>

000044cc <malloc>:
    44cc:	00800074 	movhi	r2,1
    44d0:	200b883a 	mov	r5,r4
    44d4:	11209c17 	ldw	r4,-32144(r2)
    44d8:	00046941 	jmpi	4694 <_malloc_r>

000044dc <free>:
    44dc:	00800074 	movhi	r2,1
    44e0:	200b883a 	mov	r5,r4
    44e4:	11209c17 	ldw	r4,-32144(r2)
    44e8:	00045941 	jmpi	4594 <_free_r>

000044ec <memcpy>:
    44ec:	2005883a 	mov	r2,r4
    44f0:	0007883a 	mov	r3,zero
    44f4:	30c0011e 	bne	r6,r3,44fc <memcpy+0x10>
    44f8:	f800283a 	ret
    44fc:	28cf883a 	add	r7,r5,r3
    4500:	39c00003 	ldbu	r7,0(r7)
    4504:	10c9883a 	add	r4,r2,r3
    4508:	18c00044 	addi	r3,r3,1
    450c:	21c00005 	stb	r7,0(r4)
    4510:	003ff806 	br	44f4 <memcpy+0x8>

00004514 <memmove>:
    4514:	2005883a 	mov	r2,r4
    4518:	2900142e 	bgeu	r5,r4,456c <memmove+0x58>
    451c:	298f883a 	add	r7,r5,r6
    4520:	21c0122e 	bgeu	r4,r7,456c <memmove+0x58>
    4524:	018a303a 	nor	r5,zero,r6
    4528:	0007883a 	mov	r3,zero
    452c:	18ffffc4 	addi	r3,r3,-1
    4530:	28c0011e 	bne	r5,r3,4538 <memmove+0x24>
    4534:	f800283a 	ret
    4538:	38c9883a 	add	r4,r7,r3
    453c:	22000003 	ldbu	r8,0(r4)
    4540:	30c9883a 	add	r4,r6,r3
    4544:	1109883a 	add	r4,r2,r4
    4548:	22000005 	stb	r8,0(r4)
    454c:	003ff706 	br	452c <memmove+0x18>
    4550:	28c9883a 	add	r4,r5,r3
    4554:	21c00003 	ldbu	r7,0(r4)
    4558:	10c9883a 	add	r4,r2,r3
    455c:	18c00044 	addi	r3,r3,1
    4560:	21c00005 	stb	r7,0(r4)
    4564:	30fffa1e 	bne	r6,r3,4550 <memmove+0x3c>
    4568:	f800283a 	ret
    456c:	0007883a 	mov	r3,zero
    4570:	003ffc06 	br	4564 <memmove+0x50>

00004574 <memset>:
    4574:	2005883a 	mov	r2,r4
    4578:	218d883a 	add	r6,r4,r6
    457c:	2007883a 	mov	r3,r4
    4580:	1980011e 	bne	r3,r6,4588 <memset+0x14>
    4584:	f800283a 	ret
    4588:	18c00044 	addi	r3,r3,1
    458c:	197fffc5 	stb	r5,-1(r3)
    4590:	003ffb06 	br	4580 <memset+0xc>

00004594 <_free_r>:
    4594:	28003e26 	beq	r5,zero,4690 <_free_r+0xfc>
    4598:	28bfff17 	ldw	r2,-4(r5)
    459c:	defffd04 	addi	sp,sp,-12
    45a0:	dc000115 	stw	r16,4(sp)
    45a4:	dfc00215 	stw	ra,8(sp)
    45a8:	2c3fff04 	addi	r16,r5,-4
    45ac:	1000010e 	bge	r2,zero,45b4 <_free_r+0x20>
    45b0:	80a1883a 	add	r16,r16,r2
    45b4:	d9000015 	stw	r4,0(sp)
    45b8:	00054040 	call	5404 <__malloc_lock>
    45bc:	00800074 	movhi	r2,1
    45c0:	10a0b717 	ldw	r2,-32036(r2)
    45c4:	d9000017 	ldw	r4,0(sp)
    45c8:	1000071e 	bne	r2,zero,45e8 <_free_r+0x54>
    45cc:	80000115 	stw	zero,4(r16)
    45d0:	00800074 	movhi	r2,1
    45d4:	1420b715 	stw	r16,-32036(r2)
    45d8:	dfc00217 	ldw	ra,8(sp)
    45dc:	dc000117 	ldw	r16,4(sp)
    45e0:	dec00304 	addi	sp,sp,12
    45e4:	00054081 	jmpi	5408 <__malloc_unlock>
    45e8:	8080092e 	bgeu	r16,r2,4610 <_free_r+0x7c>
    45ec:	81400017 	ldw	r5,0(r16)
    45f0:	8147883a 	add	r3,r16,r5
    45f4:	10c0041e 	bne	r2,r3,4608 <_free_r+0x74>
    45f8:	10c00017 	ldw	r3,0(r2)
    45fc:	10800117 	ldw	r2,4(r2)
    4600:	1947883a 	add	r3,r3,r5
    4604:	80c00015 	stw	r3,0(r16)
    4608:	80800115 	stw	r2,4(r16)
    460c:	003ff006 	br	45d0 <_free_r+0x3c>
    4610:	1007883a 	mov	r3,r2
    4614:	10800117 	ldw	r2,4(r2)
    4618:	10000126 	beq	r2,zero,4620 <_free_r+0x8c>
    461c:	80bffc2e 	bgeu	r16,r2,4610 <_free_r+0x7c>
    4620:	19400017 	ldw	r5,0(r3)
    4624:	194d883a 	add	r6,r3,r5
    4628:	34000b1e 	bne	r6,r16,4658 <_free_r+0xc4>
    462c:	81800017 	ldw	r6,0(r16)
    4630:	298b883a 	add	r5,r5,r6
    4634:	19400015 	stw	r5,0(r3)
    4638:	194d883a 	add	r6,r3,r5
    463c:	11bfe61e 	bne	r2,r6,45d8 <_free_r+0x44>
    4640:	11800017 	ldw	r6,0(r2)
    4644:	10800117 	ldw	r2,4(r2)
    4648:	314b883a 	add	r5,r6,r5
    464c:	19400015 	stw	r5,0(r3)
    4650:	18800115 	stw	r2,4(r3)
    4654:	003fe006 	br	45d8 <_free_r+0x44>
    4658:	8180032e 	bgeu	r16,r6,4668 <_free_r+0xd4>
    465c:	00800304 	movi	r2,12
    4660:	20800015 	stw	r2,0(r4)
    4664:	003fdc06 	br	45d8 <_free_r+0x44>
    4668:	81800017 	ldw	r6,0(r16)
    466c:	818b883a 	add	r5,r16,r6
    4670:	1140041e 	bne	r2,r5,4684 <_free_r+0xf0>
    4674:	11400017 	ldw	r5,0(r2)
    4678:	10800117 	ldw	r2,4(r2)
    467c:	298b883a 	add	r5,r5,r6
    4680:	81400015 	stw	r5,0(r16)
    4684:	80800115 	stw	r2,4(r16)
    4688:	1c000115 	stw	r16,4(r3)
    468c:	003fd206 	br	45d8 <_free_r+0x44>
    4690:	f800283a 	ret

00004694 <_malloc_r>:
    4694:	defffc04 	addi	sp,sp,-16
    4698:	00bfff04 	movi	r2,-4
    469c:	dc400115 	stw	r17,4(sp)
    46a0:	2c4000c4 	addi	r17,r5,3
    46a4:	88a2703a 	and	r17,r17,r2
    46a8:	8c400204 	addi	r17,r17,8
    46ac:	dc800215 	stw	r18,8(sp)
    46b0:	dfc00315 	stw	ra,12(sp)
    46b4:	dc000015 	stw	r16,0(sp)
    46b8:	88800328 	cmpgeui	r2,r17,12
    46bc:	2025883a 	mov	r18,r4
    46c0:	10001a1e 	bne	r2,zero,472c <_malloc_r+0x98>
    46c4:	04400304 	movi	r17,12
    46c8:	89401936 	bltu	r17,r5,4730 <_malloc_r+0x9c>
    46cc:	9009883a 	mov	r4,r18
    46d0:	00054040 	call	5404 <__malloc_lock>
    46d4:	00800074 	movhi	r2,1
    46d8:	10e0b717 	ldw	r3,-32036(r2)
    46dc:	1821883a 	mov	r16,r3
    46e0:	80001c1e 	bne	r16,zero,4754 <_malloc_r+0xc0>
    46e4:	00800074 	movhi	r2,1
    46e8:	10a0b617 	ldw	r2,-32040(r2)
    46ec:	1000051e 	bne	r2,zero,4704 <_malloc_r+0x70>
    46f0:	000b883a 	mov	r5,zero
    46f4:	9009883a 	mov	r4,r18
    46f8:	000483c0 	call	483c <_sbrk_r>
    46fc:	00c00074 	movhi	r3,1
    4700:	18a0b615 	stw	r2,-32040(r3)
    4704:	880b883a 	mov	r5,r17
    4708:	9009883a 	mov	r4,r18
    470c:	000483c0 	call	483c <_sbrk_r>
    4710:	10ffffd8 	cmpnei	r3,r2,-1
    4714:	18002d1e 	bne	r3,zero,47cc <_malloc_r+0x138>
    4718:	00800304 	movi	r2,12
    471c:	90800015 	stw	r2,0(r18)
    4720:	9009883a 	mov	r4,r18
    4724:	00054080 	call	5408 <__malloc_unlock>
    4728:	00000306 	br	4738 <_malloc_r+0xa4>
    472c:	883fe60e 	bge	r17,zero,46c8 <_malloc_r+0x34>
    4730:	00800304 	movi	r2,12
    4734:	90800015 	stw	r2,0(r18)
    4738:	0005883a 	mov	r2,zero
    473c:	dfc00317 	ldw	ra,12(sp)
    4740:	dc800217 	ldw	r18,8(sp)
    4744:	dc400117 	ldw	r17,4(sp)
    4748:	dc000017 	ldw	r16,0(sp)
    474c:	dec00404 	addi	sp,sp,16
    4750:	f800283a 	ret
    4754:	80800017 	ldw	r2,0(r16)
    4758:	1445c83a 	sub	r2,r2,r17
    475c:	10001816 	blt	r2,zero,47c0 <_malloc_r+0x12c>
    4760:	11000330 	cmpltui	r4,r2,12
    4764:	2000041e 	bne	r4,zero,4778 <_malloc_r+0xe4>
    4768:	80800015 	stw	r2,0(r16)
    476c:	80a1883a 	add	r16,r16,r2
    4770:	84400015 	stw	r17,0(r16)
    4774:	00000406 	br	4788 <_malloc_r+0xf4>
    4778:	80800117 	ldw	r2,4(r16)
    477c:	1c000e1e 	bne	r3,r16,47b8 <_malloc_r+0x124>
    4780:	00c00074 	movhi	r3,1
    4784:	18a0b715 	stw	r2,-32036(r3)
    4788:	9009883a 	mov	r4,r18
    478c:	00054080 	call	5408 <__malloc_unlock>
    4790:	013ffe04 	movi	r4,-8
    4794:	808002c4 	addi	r2,r16,11
    4798:	80c00104 	addi	r3,r16,4
    479c:	1104703a 	and	r2,r2,r4
    47a0:	10c9c83a 	sub	r4,r2,r3
    47a4:	10ffe526 	beq	r2,r3,473c <_malloc_r+0xa8>
    47a8:	8121883a 	add	r16,r16,r4
    47ac:	1887c83a 	sub	r3,r3,r2
    47b0:	80c00015 	stw	r3,0(r16)
    47b4:	003fe106 	br	473c <_malloc_r+0xa8>
    47b8:	18800115 	stw	r2,4(r3)
    47bc:	003ff206 	br	4788 <_malloc_r+0xf4>
    47c0:	8007883a 	mov	r3,r16
    47c4:	84000117 	ldw	r16,4(r16)
    47c8:	003fc506 	br	46e0 <_malloc_r+0x4c>
    47cc:	140000c4 	addi	r16,r2,3
    47d0:	00ffff04 	movi	r3,-4
    47d4:	80e0703a 	and	r16,r16,r3
    47d8:	143fe526 	beq	r2,r16,4770 <_malloc_r+0xdc>
    47dc:	808bc83a 	sub	r5,r16,r2
    47e0:	9009883a 	mov	r4,r18
    47e4:	000483c0 	call	483c <_sbrk_r>
    47e8:	10bfffe0 	cmpeqi	r2,r2,-1
    47ec:	103fe026 	beq	r2,zero,4770 <_malloc_r+0xdc>
    47f0:	003fc906 	br	4718 <_malloc_r+0x84>

000047f4 <printf>:
    47f4:	defffc04 	addi	sp,sp,-16
    47f8:	dfc00015 	stw	ra,0(sp)
    47fc:	d9400115 	stw	r5,4(sp)
    4800:	d9800215 	stw	r6,8(sp)
    4804:	d9c00315 	stw	r7,12(sp)
    4808:	00800074 	movhi	r2,1
    480c:	10e09c17 	ldw	r3,-32144(r2)
    4810:	00800034 	movhi	r2,0
    4814:	1093d304 	addi	r2,r2,20300
    4818:	19400217 	ldw	r5,8(r3)
    481c:	d9800104 	addi	r6,sp,4
    4820:	28800115 	stw	r2,4(r5)
    4824:	200b883a 	mov	r5,r4
    4828:	19000217 	ldw	r4,8(r3)
    482c:	0004f340 	call	4f34 <__vfprintf_internal>
    4830:	dfc00017 	ldw	ra,0(sp)
    4834:	dec00404 	addi	sp,sp,16
    4838:	f800283a 	ret

0000483c <_sbrk_r>:
    483c:	defffe04 	addi	sp,sp,-8
    4840:	dc000015 	stw	r16,0(sp)
    4844:	00800074 	movhi	r2,1
    4848:	2021883a 	mov	r16,r4
    484c:	2809883a 	mov	r4,r5
    4850:	dfc00115 	stw	ra,4(sp)
    4854:	1020b815 	stw	zero,-32032(r2)
    4858:	00054900 	call	5490 <sbrk>
    485c:	10ffffd8 	cmpnei	r3,r2,-1
    4860:	1800041e 	bne	r3,zero,4874 <_sbrk_r+0x38>
    4864:	00c00074 	movhi	r3,1
    4868:	18e0b817 	ldw	r3,-32032(r3)
    486c:	18000126 	beq	r3,zero,4874 <_sbrk_r+0x38>
    4870:	80c00015 	stw	r3,0(r16)
    4874:	dfc00117 	ldw	ra,4(sp)
    4878:	dc000017 	ldw	r16,0(sp)
    487c:	dec00204 	addi	sp,sp,8
    4880:	f800283a 	ret

00004884 <_raise_r>:
    4884:	defffd04 	addi	sp,sp,-12
    4888:	dc000015 	stw	r16,0(sp)
    488c:	dfc00215 	stw	ra,8(sp)
    4890:	dc400115 	stw	r17,4(sp)
    4894:	28800830 	cmpltui	r2,r5,32
    4898:	2021883a 	mov	r16,r4
    489c:	1000081e 	bne	r2,zero,48c0 <_raise_r+0x3c>
    48a0:	00800584 	movi	r2,22
    48a4:	20800015 	stw	r2,0(r4)
    48a8:	00bfffc4 	movi	r2,-1
    48ac:	dfc00217 	ldw	ra,8(sp)
    48b0:	dc400117 	ldw	r17,4(sp)
    48b4:	dc000017 	ldw	r16,0(sp)
    48b8:	dec00304 	addi	sp,sp,12
    48bc:	f800283a 	ret
    48c0:	20800c17 	ldw	r2,48(r4)
    48c4:	2823883a 	mov	r17,r5
    48c8:	10000426 	beq	r2,zero,48dc <_raise_r+0x58>
    48cc:	280690ba 	slli	r3,r5,2
    48d0:	10c5883a 	add	r2,r2,r3
    48d4:	10c00017 	ldw	r3,0(r2)
    48d8:	18000a1e 	bne	r3,zero,4904 <_raise_r+0x80>
    48dc:	8009883a 	mov	r4,r16
    48e0:	00049940 	call	4994 <_getpid_r>
    48e4:	880d883a 	mov	r6,r17
    48e8:	100b883a 	mov	r5,r2
    48ec:	8009883a 	mov	r4,r16
    48f0:	dfc00217 	ldw	ra,8(sp)
    48f4:	dc400117 	ldw	r17,4(sp)
    48f8:	dc000017 	ldw	r16,0(sp)
    48fc:	dec00304 	addi	sp,sp,12
    4900:	00049481 	jmpi	4948 <_kill_r>
    4904:	19000060 	cmpeqi	r4,r3,1
    4908:	2000091e 	bne	r4,zero,4930 <_raise_r+0xac>
    490c:	193fffd8 	cmpnei	r4,r3,-1
    4910:	2000041e 	bne	r4,zero,4924 <_raise_r+0xa0>
    4914:	00800584 	movi	r2,22
    4918:	80800015 	stw	r2,0(r16)
    491c:	00800044 	movi	r2,1
    4920:	003fe206 	br	48ac <_raise_r+0x28>
    4924:	10000015 	stw	zero,0(r2)
    4928:	2809883a 	mov	r4,r5
    492c:	183ee83a 	callr	r3
    4930:	0005883a 	mov	r2,zero
    4934:	003fdd06 	br	48ac <_raise_r+0x28>

00004938 <raise>:
    4938:	00800074 	movhi	r2,1
    493c:	200b883a 	mov	r5,r4
    4940:	11209c17 	ldw	r4,-32144(r2)
    4944:	00048841 	jmpi	4884 <_raise_r>

00004948 <_kill_r>:
    4948:	defffe04 	addi	sp,sp,-8
    494c:	dc000015 	stw	r16,0(sp)
    4950:	00800074 	movhi	r2,1
    4954:	2021883a 	mov	r16,r4
    4958:	2809883a 	mov	r4,r5
    495c:	300b883a 	mov	r5,r6
    4960:	dfc00115 	stw	ra,4(sp)
    4964:	1020b815 	stw	zero,-32032(r2)
    4968:	000525c0 	call	525c <kill>
    496c:	10ffffd8 	cmpnei	r3,r2,-1
    4970:	1800041e 	bne	r3,zero,4984 <_kill_r+0x3c>
    4974:	00c00074 	movhi	r3,1
    4978:	18e0b817 	ldw	r3,-32032(r3)
    497c:	18000126 	beq	r3,zero,4984 <_kill_r+0x3c>
    4980:	80c00015 	stw	r3,0(r16)
    4984:	dfc00117 	ldw	ra,4(sp)
    4988:	dc000017 	ldw	r16,0(sp)
    498c:	dec00204 	addi	sp,sp,8
    4990:	f800283a 	ret

00004994 <_getpid_r>:
    4994:	00052541 	jmpi	5254 <getpid>

00004998 <strcmp>:
    4998:	20800003 	ldbu	r2,0(r4)
    499c:	28c00003 	ldbu	r3,0(r5)
    49a0:	11803fcc 	andi	r6,r2,255
    49a4:	3180201c 	xori	r6,r6,128
    49a8:	31bfe004 	addi	r6,r6,-128
    49ac:	30000426 	beq	r6,zero,49c0 <strcmp+0x28>
    49b0:	19c03fcc 	andi	r7,r3,255
    49b4:	39c0201c 	xori	r7,r7,128
    49b8:	39ffe004 	addi	r7,r7,-128
    49bc:	31c00426 	beq	r6,r7,49d0 <strcmp+0x38>
    49c0:	18c03fcc 	andi	r3,r3,255
    49c4:	10803fcc 	andi	r2,r2,255
    49c8:	10c5c83a 	sub	r2,r2,r3
    49cc:	f800283a 	ret
    49d0:	21000044 	addi	r4,r4,1
    49d4:	29400044 	addi	r5,r5,1
    49d8:	003fef06 	br	4998 <strcmp>

000049dc <print_repeat>:
    49dc:	defffb04 	addi	sp,sp,-20
    49e0:	dc800315 	stw	r18,12(sp)
    49e4:	dc400215 	stw	r17,8(sp)
    49e8:	dc000115 	stw	r16,4(sp)
    49ec:	dfc00415 	stw	ra,16(sp)
    49f0:	2025883a 	mov	r18,r4
    49f4:	2823883a 	mov	r17,r5
    49f8:	d9800005 	stb	r6,0(sp)
    49fc:	3821883a 	mov	r16,r7
    4a00:	04000716 	blt	zero,r16,4a20 <print_repeat+0x44>
    4a04:	0005883a 	mov	r2,zero
    4a08:	dfc00417 	ldw	ra,16(sp)
    4a0c:	dc800317 	ldw	r18,12(sp)
    4a10:	dc400217 	ldw	r17,8(sp)
    4a14:	dc000117 	ldw	r16,4(sp)
    4a18:	dec00504 	addi	sp,sp,20
    4a1c:	f800283a 	ret
    4a20:	88800117 	ldw	r2,4(r17)
    4a24:	01c00044 	movi	r7,1
    4a28:	d80d883a 	mov	r6,sp
    4a2c:	880b883a 	mov	r5,r17
    4a30:	9009883a 	mov	r4,r18
    4a34:	103ee83a 	callr	r2
    4a38:	843fffc4 	addi	r16,r16,-1
    4a3c:	103ff026 	beq	r2,zero,4a00 <print_repeat+0x24>
    4a40:	00bfffc4 	movi	r2,-1
    4a44:	003ff006 	br	4a08 <print_repeat+0x2c>

00004a48 <___vfprintf_internal_r>:
    4a48:	deffe604 	addi	sp,sp,-104
    4a4c:	df001815 	stw	fp,96(sp)
    4a50:	ddc01715 	stw	r23,92(sp)
    4a54:	dd801615 	stw	r22,88(sp)
    4a58:	dd001415 	stw	r20,80(sp)
    4a5c:	dcc01315 	stw	r19,76(sp)
    4a60:	dc801215 	stw	r18,72(sp)
    4a64:	dc401115 	stw	r17,68(sp)
    4a68:	dc001015 	stw	r16,64(sp)
    4a6c:	dfc01915 	stw	ra,100(sp)
    4a70:	dd401515 	stw	r21,84(sp)
    4a74:	2021883a 	mov	r16,r4
    4a78:	282f883a 	mov	r23,r5
    4a7c:	d9800515 	stw	r6,20(sp)
    4a80:	3839883a 	mov	fp,r7
    4a84:	002d883a 	mov	r22,zero
    4a88:	d8000215 	stw	zero,8(sp)
    4a8c:	0027883a 	mov	r19,zero
    4a90:	0029883a 	mov	r20,zero
    4a94:	0025883a 	mov	r18,zero
    4a98:	0023883a 	mov	r17,zero
    4a9c:	d8000115 	stw	zero,4(sp)
    4aa0:	d8000015 	stw	zero,0(sp)
    4aa4:	0005883a 	mov	r2,zero
    4aa8:	00000206 	br	4ab4 <___vfprintf_internal_r+0x6c>
    4aac:	118000e0 	cmpeqi	r6,r2,3
    4ab0:	30003d1e 	bne	r6,zero,4ba8 <___vfprintf_internal_r+0x160>
    4ab4:	d8c00517 	ldw	r3,20(sp)
    4ab8:	19000003 	ldbu	r4,0(r3)
    4abc:	18c00044 	addi	r3,r3,1
    4ac0:	d8c00515 	stw	r3,20(sp)
    4ac4:	21403fcc 	andi	r5,r4,255
    4ac8:	2940201c 	xori	r5,r5,128
    4acc:	297fe004 	addi	r5,r5,-128
    4ad0:	28001426 	beq	r5,zero,4b24 <___vfprintf_internal_r+0xdc>
    4ad4:	118000a0 	cmpeqi	r6,r2,2
    4ad8:	3000231e 	bne	r6,zero,4b68 <___vfprintf_internal_r+0x120>
    4adc:	118000c8 	cmpgei	r6,r2,3
    4ae0:	303ff21e 	bne	r6,zero,4aac <___vfprintf_internal_r+0x64>
    4ae4:	10000426 	beq	r2,zero,4af8 <___vfprintf_internal_r+0xb0>
    4ae8:	10800060 	cmpeqi	r2,r2,1
    4aec:	10001a1e 	bne	r2,zero,4b58 <___vfprintf_internal_r+0x110>
    4af0:	00800084 	movi	r2,2
    4af4:	003fef06 	br	4ab4 <___vfprintf_internal_r+0x6c>
    4af8:	29400960 	cmpeqi	r5,r5,37
    4afc:	2800f61e 	bne	r5,zero,4ed8 <___vfprintf_internal_r+0x490>
    4b00:	b8800117 	ldw	r2,4(r23)
    4b04:	d9000805 	stb	r4,32(sp)
    4b08:	01c00044 	movi	r7,1
    4b0c:	d9800804 	addi	r6,sp,32
    4b10:	b80b883a 	mov	r5,r23
    4b14:	8009883a 	mov	r4,r16
    4b18:	103ee83a 	callr	r2
    4b1c:	10001b26 	beq	r2,zero,4b8c <___vfprintf_internal_r+0x144>
    4b20:	05bfffc4 	movi	r22,-1
    4b24:	b005883a 	mov	r2,r22
    4b28:	dfc01917 	ldw	ra,100(sp)
    4b2c:	df001817 	ldw	fp,96(sp)
    4b30:	ddc01717 	ldw	r23,92(sp)
    4b34:	dd801617 	ldw	r22,88(sp)
    4b38:	dd401517 	ldw	r21,84(sp)
    4b3c:	dd001417 	ldw	r20,80(sp)
    4b40:	dcc01317 	ldw	r19,76(sp)
    4b44:	dc801217 	ldw	r18,72(sp)
    4b48:	dc401117 	ldw	r17,68(sp)
    4b4c:	dc001017 	ldw	r16,64(sp)
    4b50:	dec01a04 	addi	sp,sp,104
    4b54:	f800283a 	ret
    4b58:	28800c20 	cmpeqi	r2,r5,48
    4b5c:	1000e71e 	bne	r2,zero,4efc <___vfprintf_internal_r+0x4b4>
    4b60:	28800958 	cmpnei	r2,r5,37
    4b64:	103fe626 	beq	r2,zero,4b00 <___vfprintf_internal_r+0xb8>
    4b68:	20bff404 	addi	r2,r4,-48
    4b6c:	10803fcc 	andi	r2,r2,255
    4b70:	118002a8 	cmpgeui	r6,r2,10
    4b74:	3000091e 	bne	r6,zero,4b9c <___vfprintf_internal_r+0x154>
    4b78:	893fffe0 	cmpeqi	r4,r17,-1
    4b7c:	2000051e 	bne	r4,zero,4b94 <___vfprintf_internal_r+0x14c>
    4b80:	8c4002a4 	muli	r17,r17,10
    4b84:	1463883a 	add	r17,r2,r17
    4b88:	003fd906 	br	4af0 <___vfprintf_internal_r+0xa8>
    4b8c:	b5800044 	addi	r22,r22,1
    4b90:	003fc806 	br	4ab4 <___vfprintf_internal_r+0x6c>
    4b94:	0023883a 	mov	r17,zero
    4b98:	003ffa06 	br	4b84 <___vfprintf_internal_r+0x13c>
    4b9c:	28800ba0 	cmpeqi	r2,r5,46
    4ba0:	1000db1e 	bne	r2,zero,4f10 <___vfprintf_internal_r+0x4c8>
    4ba4:	00800084 	movi	r2,2
    4ba8:	213ff404 	addi	r4,r4,-48
    4bac:	21003fcc 	andi	r4,r4,255
    4bb0:	218002a8 	cmpgeui	r6,r4,10
    4bb4:	3000071e 	bne	r6,zero,4bd4 <___vfprintf_internal_r+0x18c>
    4bb8:	917fffe0 	cmpeqi	r5,r18,-1
    4bbc:	2800031e 	bne	r5,zero,4bcc <___vfprintf_internal_r+0x184>
    4bc0:	948002a4 	muli	r18,r18,10
    4bc4:	24a5883a 	add	r18,r4,r18
    4bc8:	003fba06 	br	4ab4 <___vfprintf_internal_r+0x6c>
    4bcc:	0025883a 	mov	r18,zero
    4bd0:	003ffc06 	br	4bc4 <___vfprintf_internal_r+0x17c>
    4bd4:	28801b20 	cmpeqi	r2,r5,108
    4bd8:	1000cb1e 	bne	r2,zero,4f08 <___vfprintf_internal_r+0x4c0>
    4bdc:	90bfffe0 	cmpeqi	r2,r18,-1
    4be0:	10000f1e 	bne	r2,zero,4c20 <___vfprintf_internal_r+0x1d8>
    4be4:	d8000015 	stw	zero,0(sp)
    4be8:	28801be0 	cmpeqi	r2,r5,111
    4bec:	1000ca1e 	bne	r2,zero,4f18 <___vfprintf_internal_r+0x4d0>
    4bf0:	28801c08 	cmpgei	r2,r5,112
    4bf4:	1000171e 	bne	r2,zero,4c54 <___vfprintf_internal_r+0x20c>
    4bf8:	288018e0 	cmpeqi	r2,r5,99
    4bfc:	10009f1e 	bne	r2,zero,4e7c <___vfprintf_internal_r+0x434>
    4c00:	28801908 	cmpgei	r2,r5,100
    4c04:	1000081e 	bne	r2,zero,4c28 <___vfprintf_internal_r+0x1e0>
    4c08:	29401620 	cmpeqi	r5,r5,88
    4c0c:	283fa526 	beq	r5,zero,4aa4 <___vfprintf_internal_r+0x5c>
    4c10:	00800044 	movi	r2,1
    4c14:	d8800215 	stw	r2,8(sp)
    4c18:	05000404 	movi	r20,16
    4c1c:	0000bf06 	br	4f1c <___vfprintf_internal_r+0x4d4>
    4c20:	04800044 	movi	r18,1
    4c24:	003ff006 	br	4be8 <___vfprintf_internal_r+0x1a0>
    4c28:	28801920 	cmpeqi	r2,r5,100
    4c2c:	1000021e 	bne	r2,zero,4c38 <___vfprintf_internal_r+0x1f0>
    4c30:	29401a60 	cmpeqi	r5,r5,105
    4c34:	283f9b26 	beq	r5,zero,4aa4 <___vfprintf_internal_r+0x5c>
    4c38:	e0800104 	addi	r2,fp,4
    4c3c:	d8800415 	stw	r2,16(sp)
    4c40:	9800b626 	beq	r19,zero,4f1c <___vfprintf_internal_r+0x4d4>
    4c44:	e5400017 	ldw	r21,0(fp)
    4c48:	a8002216 	blt	r21,zero,4cd4 <___vfprintf_internal_r+0x28c>
    4c4c:	04c00044 	movi	r19,1
    4c50:	0000b606 	br	4f2c <___vfprintf_internal_r+0x4e4>
    4c54:	28801d60 	cmpeqi	r2,r5,117
    4c58:	1000b01e 	bne	r2,zero,4f1c <___vfprintf_internal_r+0x4d4>
    4c5c:	28801e20 	cmpeqi	r2,r5,120
    4c60:	103fed1e 	bne	r2,zero,4c18 <___vfprintf_internal_r+0x1d0>
    4c64:	29401ce0 	cmpeqi	r5,r5,115
    4c68:	283f8e26 	beq	r5,zero,4aa4 <___vfprintf_internal_r+0x5c>
    4c6c:	e5400017 	ldw	r21,0(fp)
    4c70:	e0800104 	addi	r2,fp,4
    4c74:	d8800315 	stw	r2,12(sp)
    4c78:	a809883a 	mov	r4,r21
    4c7c:	0004ff40 	call	4ff4 <strlen>
    4c80:	888fc83a 	sub	r7,r17,r2
    4c84:	1039883a 	mov	fp,r2
    4c88:	01c0080e 	bge	zero,r7,4cac <___vfprintf_internal_r+0x264>
    4c8c:	01800804 	movi	r6,32
    4c90:	b80b883a 	mov	r5,r23
    4c94:	8009883a 	mov	r4,r16
    4c98:	d9c00415 	stw	r7,16(sp)
    4c9c:	00049dc0 	call	49dc <print_repeat>
    4ca0:	103f9f1e 	bne	r2,zero,4b20 <___vfprintf_internal_r+0xd8>
    4ca4:	d9c00417 	ldw	r7,16(sp)
    4ca8:	b1ed883a 	add	r22,r22,r7
    4cac:	b8800117 	ldw	r2,4(r23)
    4cb0:	e00f883a 	mov	r7,fp
    4cb4:	a80d883a 	mov	r6,r21
    4cb8:	b80b883a 	mov	r5,r23
    4cbc:	8009883a 	mov	r4,r16
    4cc0:	103ee83a 	callr	r2
    4cc4:	103f961e 	bne	r2,zero,4b20 <___vfprintf_internal_r+0xd8>
    4cc8:	b72d883a 	add	r22,r22,fp
    4ccc:	df000317 	ldw	fp,12(sp)
    4cd0:	003f7806 	br	4ab4 <___vfprintf_internal_r+0x6c>
    4cd4:	056bc83a 	sub	r21,zero,r21
    4cd8:	04c00044 	movi	r19,1
    4cdc:	00c00044 	movi	r3,1
    4ce0:	df000804 	addi	fp,sp,32
    4ce4:	e00d883a 	mov	r6,fp
    4ce8:	a8002e1e 	bne	r21,zero,4da4 <___vfprintf_internal_r+0x35c>
    4cec:	e185c83a 	sub	r2,fp,r6
    4cf0:	d8800315 	stw	r2,12(sp)
    4cf4:	9085c83a 	sub	r2,r18,r2
    4cf8:	0080090e 	bge	zero,r2,4d20 <___vfprintf_internal_r+0x2d8>
    4cfc:	e085883a 	add	r2,fp,r2
    4d00:	d9001004 	addi	r4,sp,64
    4d04:	e100042e 	bgeu	fp,r4,4d18 <___vfprintf_internal_r+0x2d0>
    4d08:	e7000044 	addi	fp,fp,1
    4d0c:	01000c04 	movi	r4,48
    4d10:	e13fffc5 	stb	r4,-1(fp)
    4d14:	e0bffa1e 	bne	fp,r2,4d00 <___vfprintf_internal_r+0x2b8>
    4d18:	e185c83a 	sub	r2,fp,r6
    4d1c:	d8800315 	stw	r2,12(sp)
    4d20:	d8800317 	ldw	r2,12(sp)
    4d24:	1897883a 	add	r11,r3,r2
    4d28:	d8800017 	ldw	r2,0(sp)
    4d2c:	8aebc83a 	sub	r21,r17,r11
    4d30:	10003126 	beq	r2,zero,4df8 <___vfprintf_internal_r+0x3b0>
    4d34:	18000a26 	beq	r3,zero,4d60 <___vfprintf_internal_r+0x318>
    4d38:	00800b44 	movi	r2,45
    4d3c:	d88007c5 	stb	r2,31(sp)
    4d40:	b8800117 	ldw	r2,4(r23)
    4d44:	01c00044 	movi	r7,1
    4d48:	d98007c4 	addi	r6,sp,31
    4d4c:	b80b883a 	mov	r5,r23
    4d50:	8009883a 	mov	r4,r16
    4d54:	103ee83a 	callr	r2
    4d58:	103f711e 	bne	r2,zero,4b20 <___vfprintf_internal_r+0xd8>
    4d5c:	b5800044 	addi	r22,r22,1
    4d60:	0540070e 	bge	zero,r21,4d80 <___vfprintf_internal_r+0x338>
    4d64:	a80f883a 	mov	r7,r21
    4d68:	01800c04 	movi	r6,48
    4d6c:	b80b883a 	mov	r5,r23
    4d70:	8009883a 	mov	r4,r16
    4d74:	00049dc0 	call	49dc <print_repeat>
    4d78:	103f691e 	bne	r2,zero,4b20 <___vfprintf_internal_r+0xd8>
    4d7c:	b56d883a 	add	r22,r22,r21
    4d80:	d8800317 	ldw	r2,12(sp)
    4d84:	b72d883a 	add	r22,r22,fp
    4d88:	172bc83a 	sub	r21,r2,fp
    4d8c:	af05883a 	add	r2,r21,fp
    4d90:	b707c83a 	sub	r3,r22,fp
    4d94:	00802e16 	blt	zero,r2,4e50 <___vfprintf_internal_r+0x408>
    4d98:	df000417 	ldw	fp,16(sp)
    4d9c:	182d883a 	mov	r22,r3
    4da0:	003f4006 	br	4aa4 <___vfprintf_internal_r+0x5c>
    4da4:	a809883a 	mov	r4,r21
    4da8:	a00b883a 	mov	r5,r20
    4dac:	d8c00315 	stw	r3,12(sp)
    4db0:	00051540 	call	5154 <__udivsi3>
    4db4:	1509383a 	mul	r4,r2,r20
    4db8:	d8c00317 	ldw	r3,12(sp)
    4dbc:	d9800804 	addi	r6,sp,32
    4dc0:	a92bc83a 	sub	r21,r21,r4
    4dc4:	a9000288 	cmpgei	r4,r21,10
    4dc8:	2000051e 	bne	r4,zero,4de0 <___vfprintf_internal_r+0x398>
    4dcc:	ad400c04 	addi	r21,r21,48
    4dd0:	e7000044 	addi	fp,fp,1
    4dd4:	e57fffc5 	stb	r21,-1(fp)
    4dd8:	102b883a 	mov	r21,r2
    4ddc:	003fc206 	br	4ce8 <___vfprintf_internal_r+0x2a0>
    4de0:	d9000217 	ldw	r4,8(sp)
    4de4:	20000226 	beq	r4,zero,4df0 <___vfprintf_internal_r+0x3a8>
    4de8:	ad400dc4 	addi	r21,r21,55
    4dec:	003ff806 	br	4dd0 <___vfprintf_internal_r+0x388>
    4df0:	ad4015c4 	addi	r21,r21,87
    4df4:	003ff606 	br	4dd0 <___vfprintf_internal_r+0x388>
    4df8:	0540090e 	bge	zero,r21,4e20 <___vfprintf_internal_r+0x3d8>
    4dfc:	a80f883a 	mov	r7,r21
    4e00:	01800804 	movi	r6,32
    4e04:	b80b883a 	mov	r5,r23
    4e08:	8009883a 	mov	r4,r16
    4e0c:	d8c00615 	stw	r3,24(sp)
    4e10:	00049dc0 	call	49dc <print_repeat>
    4e14:	103f421e 	bne	r2,zero,4b20 <___vfprintf_internal_r+0xd8>
    4e18:	d8c00617 	ldw	r3,24(sp)
    4e1c:	b56d883a 	add	r22,r22,r21
    4e20:	183fd726 	beq	r3,zero,4d80 <___vfprintf_internal_r+0x338>
    4e24:	00800b44 	movi	r2,45
    4e28:	d88007c5 	stb	r2,31(sp)
    4e2c:	b8800117 	ldw	r2,4(r23)
    4e30:	01c00044 	movi	r7,1
    4e34:	d98007c4 	addi	r6,sp,31
    4e38:	b80b883a 	mov	r5,r23
    4e3c:	8009883a 	mov	r4,r16
    4e40:	103ee83a 	callr	r2
    4e44:	103f361e 	bne	r2,zero,4b20 <___vfprintf_internal_r+0xd8>
    4e48:	b5800044 	addi	r22,r22,1
    4e4c:	003fcc06 	br	4d80 <___vfprintf_internal_r+0x338>
    4e50:	e0bfffc3 	ldbu	r2,-1(fp)
    4e54:	01c00044 	movi	r7,1
    4e58:	d98007c4 	addi	r6,sp,31
    4e5c:	d88007c5 	stb	r2,31(sp)
    4e60:	b8800117 	ldw	r2,4(r23)
    4e64:	b80b883a 	mov	r5,r23
    4e68:	8009883a 	mov	r4,r16
    4e6c:	e73fffc4 	addi	fp,fp,-1
    4e70:	103ee83a 	callr	r2
    4e74:	103fc526 	beq	r2,zero,4d8c <___vfprintf_internal_r+0x344>
    4e78:	003f2906 	br	4b20 <___vfprintf_internal_r+0xd8>
    4e7c:	88800090 	cmplti	r2,r17,2
    4e80:	1000081e 	bne	r2,zero,4ea4 <___vfprintf_internal_r+0x45c>
    4e84:	8d7fffc4 	addi	r21,r17,-1
    4e88:	a80f883a 	mov	r7,r21
    4e8c:	01800804 	movi	r6,32
    4e90:	b80b883a 	mov	r5,r23
    4e94:	8009883a 	mov	r4,r16
    4e98:	00049dc0 	call	49dc <print_repeat>
    4e9c:	103f201e 	bne	r2,zero,4b20 <___vfprintf_internal_r+0xd8>
    4ea0:	b56d883a 	add	r22,r22,r21
    4ea4:	e0800017 	ldw	r2,0(fp)
    4ea8:	01c00044 	movi	r7,1
    4eac:	d9800804 	addi	r6,sp,32
    4eb0:	d8800805 	stb	r2,32(sp)
    4eb4:	b8800117 	ldw	r2,4(r23)
    4eb8:	b80b883a 	mov	r5,r23
    4ebc:	8009883a 	mov	r4,r16
    4ec0:	e5400104 	addi	r21,fp,4
    4ec4:	103ee83a 	callr	r2
    4ec8:	103f151e 	bne	r2,zero,4b20 <___vfprintf_internal_r+0xd8>
    4ecc:	b5800044 	addi	r22,r22,1
    4ed0:	a839883a 	mov	fp,r21
    4ed4:	003ef706 	br	4ab4 <___vfprintf_internal_r+0x6c>
    4ed8:	d8000215 	stw	zero,8(sp)
    4edc:	d8000115 	stw	zero,4(sp)
    4ee0:	d8000015 	stw	zero,0(sp)
    4ee4:	04c00044 	movi	r19,1
    4ee8:	05000284 	movi	r20,10
    4eec:	04bfffc4 	movi	r18,-1
    4ef0:	047fffc4 	movi	r17,-1
    4ef4:	00800044 	movi	r2,1
    4ef8:	003eee06 	br	4ab4 <___vfprintf_internal_r+0x6c>
    4efc:	00800044 	movi	r2,1
    4f00:	d8800015 	stw	r2,0(sp)
    4f04:	003efa06 	br	4af0 <___vfprintf_internal_r+0xa8>
    4f08:	00800044 	movi	r2,1
    4f0c:	d8800115 	stw	r2,4(sp)
    4f10:	008000c4 	movi	r2,3
    4f14:	003ee706 	br	4ab4 <___vfprintf_internal_r+0x6c>
    4f18:	05000204 	movi	r20,8
    4f1c:	e0800104 	addi	r2,fp,4
    4f20:	d8800415 	stw	r2,16(sp)
    4f24:	e5400017 	ldw	r21,0(fp)
    4f28:	0027883a 	mov	r19,zero
    4f2c:	0007883a 	mov	r3,zero
    4f30:	003f6b06 	br	4ce0 <___vfprintf_internal_r+0x298>

00004f34 <__vfprintf_internal>:
    4f34:	00800074 	movhi	r2,1
    4f38:	300f883a 	mov	r7,r6
    4f3c:	280d883a 	mov	r6,r5
    4f40:	200b883a 	mov	r5,r4
    4f44:	11209c17 	ldw	r4,-32144(r2)
    4f48:	0004a481 	jmpi	4a48 <___vfprintf_internal_r>

00004f4c <__sfvwrite_small_dev>:
    4f4c:	2880000b 	ldhu	r2,0(r5)
    4f50:	1080020c 	andi	r2,r2,8
    4f54:	10002526 	beq	r2,zero,4fec <__sfvwrite_small_dev+0xa0>
    4f58:	2880008f 	ldh	r2,2(r5)
    4f5c:	defffb04 	addi	sp,sp,-20
    4f60:	dcc00315 	stw	r19,12(sp)
    4f64:	dc800215 	stw	r18,8(sp)
    4f68:	dc400115 	stw	r17,4(sp)
    4f6c:	dc000015 	stw	r16,0(sp)
    4f70:	dfc00415 	stw	ra,16(sp)
    4f74:	2027883a 	mov	r19,r4
    4f78:	2821883a 	mov	r16,r5
    4f7c:	3025883a 	mov	r18,r6
    4f80:	3823883a 	mov	r17,r7
    4f84:	1000100e 	bge	r2,zero,4fc8 <__sfvwrite_small_dev+0x7c>
    4f88:	8080000b 	ldhu	r2,0(r16)
    4f8c:	10801014 	ori	r2,r2,64
    4f90:	8080000d 	sth	r2,0(r16)
    4f94:	00bfffc4 	movi	r2,-1
    4f98:	00000d06 	br	4fd0 <__sfvwrite_small_dev+0x84>
    4f9c:	88810050 	cmplti	r2,r17,1025
    4fa0:	880f883a 	mov	r7,r17
    4fa4:	1000011e 	bne	r2,zero,4fac <__sfvwrite_small_dev+0x60>
    4fa8:	01c10004 	movi	r7,1024
    4fac:	8140008f 	ldh	r5,2(r16)
    4fb0:	900d883a 	mov	r6,r18
    4fb4:	9809883a 	mov	r4,r19
    4fb8:	00050100 	call	5010 <_write_r>
    4fbc:	00bff20e 	bge	zero,r2,4f88 <__sfvwrite_small_dev+0x3c>
    4fc0:	88a3c83a 	sub	r17,r17,r2
    4fc4:	90a5883a 	add	r18,r18,r2
    4fc8:	047ff416 	blt	zero,r17,4f9c <__sfvwrite_small_dev+0x50>
    4fcc:	0005883a 	mov	r2,zero
    4fd0:	dfc00417 	ldw	ra,16(sp)
    4fd4:	dcc00317 	ldw	r19,12(sp)
    4fd8:	dc800217 	ldw	r18,8(sp)
    4fdc:	dc400117 	ldw	r17,4(sp)
    4fe0:	dc000017 	ldw	r16,0(sp)
    4fe4:	dec00504 	addi	sp,sp,20
    4fe8:	f800283a 	ret
    4fec:	00bfffc4 	movi	r2,-1
    4ff0:	f800283a 	ret

00004ff4 <strlen>:
    4ff4:	2005883a 	mov	r2,r4
    4ff8:	10c00007 	ldb	r3,0(r2)
    4ffc:	1800021e 	bne	r3,zero,5008 <strlen+0x14>
    5000:	1105c83a 	sub	r2,r2,r4
    5004:	f800283a 	ret
    5008:	10800044 	addi	r2,r2,1
    500c:	003ffa06 	br	4ff8 <strlen+0x4>

00005010 <_write_r>:
    5010:	defffe04 	addi	sp,sp,-8
    5014:	dc000015 	stw	r16,0(sp)
    5018:	00800074 	movhi	r2,1
    501c:	2021883a 	mov	r16,r4
    5020:	2809883a 	mov	r4,r5
    5024:	300b883a 	mov	r5,r6
    5028:	380d883a 	mov	r6,r7
    502c:	dfc00115 	stw	ra,4(sp)
    5030:	1020b815 	stw	zero,-32032(r2)
    5034:	00054fc0 	call	54fc <write>
    5038:	10ffffd8 	cmpnei	r3,r2,-1
    503c:	1800041e 	bne	r3,zero,5050 <_write_r+0x40>
    5040:	00c00074 	movhi	r3,1
    5044:	18e0b817 	ldw	r3,-32032(r3)
    5048:	18000126 	beq	r3,zero,5050 <_write_r+0x40>
    504c:	80c00015 	stw	r3,0(r16)
    5050:	dfc00117 	ldw	ra,4(sp)
    5054:	dc000017 	ldw	r16,0(sp)
    5058:	dec00204 	addi	sp,sp,8
    505c:	f800283a 	ret

00005060 <__divsi3>:
    5060:	20001a16 	blt	r4,zero,50cc <__divsi3+0x6c>
    5064:	000f883a 	mov	r7,zero
    5068:	2800020e 	bge	r5,zero,5074 <__divsi3+0x14>
    506c:	014bc83a 	sub	r5,zero,r5
    5070:	39c0005c 	xori	r7,r7,1
    5074:	200d883a 	mov	r6,r4
    5078:	00c00044 	movi	r3,1
    507c:	2900092e 	bgeu	r5,r4,50a4 <__divsi3+0x44>
    5080:	00800804 	movi	r2,32
    5084:	00c00044 	movi	r3,1
    5088:	00000106 	br	5090 <__divsi3+0x30>
    508c:	10001226 	beq	r2,zero,50d8 <__divsi3+0x78>
    5090:	294b883a 	add	r5,r5,r5
    5094:	10bfffc4 	addi	r2,r2,-1
    5098:	18c7883a 	add	r3,r3,r3
    509c:	293ffb36 	bltu	r5,r4,508c <__divsi3+0x2c>
    50a0:	18000d26 	beq	r3,zero,50d8 <__divsi3+0x78>
    50a4:	0005883a 	mov	r2,zero
    50a8:	31400236 	bltu	r6,r5,50b4 <__divsi3+0x54>
    50ac:	314dc83a 	sub	r6,r6,r5
    50b0:	10c4b03a 	or	r2,r2,r3
    50b4:	1806d07a 	srli	r3,r3,1
    50b8:	280ad07a 	srli	r5,r5,1
    50bc:	183ffa1e 	bne	r3,zero,50a8 <__divsi3+0x48>
    50c0:	38000126 	beq	r7,zero,50c8 <__divsi3+0x68>
    50c4:	0085c83a 	sub	r2,zero,r2
    50c8:	f800283a 	ret
    50cc:	0109c83a 	sub	r4,zero,r4
    50d0:	01c00044 	movi	r7,1
    50d4:	003fe406 	br	5068 <__divsi3+0x8>
    50d8:	0005883a 	mov	r2,zero
    50dc:	003ff806 	br	50c0 <__divsi3+0x60>

000050e0 <__modsi3>:
    50e0:	20001916 	blt	r4,zero,5148 <__modsi3+0x68>
    50e4:	000f883a 	mov	r7,zero
    50e8:	2005883a 	mov	r2,r4
    50ec:	2800010e 	bge	r5,zero,50f4 <__modsi3+0x14>
    50f0:	014bc83a 	sub	r5,zero,r5
    50f4:	00c00044 	movi	r3,1
    50f8:	2900092e 	bgeu	r5,r4,5120 <__modsi3+0x40>
    50fc:	01800804 	movi	r6,32
    5100:	00c00044 	movi	r3,1
    5104:	00000106 	br	510c <__modsi3+0x2c>
    5108:	30000d26 	beq	r6,zero,5140 <__modsi3+0x60>
    510c:	294b883a 	add	r5,r5,r5
    5110:	31bfffc4 	addi	r6,r6,-1
    5114:	18c7883a 	add	r3,r3,r3
    5118:	293ffb36 	bltu	r5,r4,5108 <__modsi3+0x28>
    511c:	18000826 	beq	r3,zero,5140 <__modsi3+0x60>
    5120:	1806d07a 	srli	r3,r3,1
    5124:	11400136 	bltu	r2,r5,512c <__modsi3+0x4c>
    5128:	1145c83a 	sub	r2,r2,r5
    512c:	280ad07a 	srli	r5,r5,1
    5130:	183ffb1e 	bne	r3,zero,5120 <__modsi3+0x40>
    5134:	38000126 	beq	r7,zero,513c <__modsi3+0x5c>
    5138:	0085c83a 	sub	r2,zero,r2
    513c:	f800283a 	ret
    5140:	2005883a 	mov	r2,r4
    5144:	003ffb06 	br	5134 <__modsi3+0x54>
    5148:	0109c83a 	sub	r4,zero,r4
    514c:	01c00044 	movi	r7,1
    5150:	003fe506 	br	50e8 <__modsi3+0x8>

00005154 <__udivsi3>:
    5154:	200d883a 	mov	r6,r4
    5158:	2900152e 	bgeu	r5,r4,51b0 <__udivsi3+0x5c>
    515c:	28001416 	blt	r5,zero,51b0 <__udivsi3+0x5c>
    5160:	00800804 	movi	r2,32
    5164:	00c00044 	movi	r3,1
    5168:	00000206 	br	5174 <__udivsi3+0x20>
    516c:	10000e26 	beq	r2,zero,51a8 <__udivsi3+0x54>
    5170:	28000516 	blt	r5,zero,5188 <__udivsi3+0x34>
    5174:	294b883a 	add	r5,r5,r5
    5178:	10bfffc4 	addi	r2,r2,-1
    517c:	18c7883a 	add	r3,r3,r3
    5180:	293ffa36 	bltu	r5,r4,516c <__udivsi3+0x18>
    5184:	18000826 	beq	r3,zero,51a8 <__udivsi3+0x54>
    5188:	0005883a 	mov	r2,zero
    518c:	31400236 	bltu	r6,r5,5198 <__udivsi3+0x44>
    5190:	314dc83a 	sub	r6,r6,r5
    5194:	10c4b03a 	or	r2,r2,r3
    5198:	1806d07a 	srli	r3,r3,1
    519c:	280ad07a 	srli	r5,r5,1
    51a0:	183ffa1e 	bne	r3,zero,518c <__udivsi3+0x38>
    51a4:	f800283a 	ret
    51a8:	0005883a 	mov	r2,zero
    51ac:	f800283a 	ret
    51b0:	00c00044 	movi	r3,1
    51b4:	003ff406 	br	5188 <__udivsi3+0x34>

000051b8 <__umodsi3>:
    51b8:	2005883a 	mov	r2,r4
    51bc:	2900132e 	bgeu	r5,r4,520c <__umodsi3+0x54>
    51c0:	28001216 	blt	r5,zero,520c <__umodsi3+0x54>
    51c4:	01800804 	movi	r6,32
    51c8:	00c00044 	movi	r3,1
    51cc:	00000206 	br	51d8 <__umodsi3+0x20>
    51d0:	30000c26 	beq	r6,zero,5204 <__umodsi3+0x4c>
    51d4:	28000516 	blt	r5,zero,51ec <__umodsi3+0x34>
    51d8:	294b883a 	add	r5,r5,r5
    51dc:	31bfffc4 	addi	r6,r6,-1
    51e0:	18c7883a 	add	r3,r3,r3
    51e4:	293ffa36 	bltu	r5,r4,51d0 <__umodsi3+0x18>
    51e8:	18000626 	beq	r3,zero,5204 <__umodsi3+0x4c>
    51ec:	1806d07a 	srli	r3,r3,1
    51f0:	11400136 	bltu	r2,r5,51f8 <__umodsi3+0x40>
    51f4:	1145c83a 	sub	r2,r2,r5
    51f8:	280ad07a 	srli	r5,r5,1
    51fc:	183ffb1e 	bne	r3,zero,51ec <__umodsi3+0x34>
    5200:	f800283a 	ret
    5204:	2005883a 	mov	r2,r4
    5208:	f800283a 	ret
    520c:	00c00044 	movi	r3,1
    5210:	003ff606 	br	51ec <__umodsi3+0x34>

00005214 <alt_getchar>:
#else
#ifdef ALT_USE_DIRECT_DRIVERS
    ALT_DRIVER_READ_EXTERNS(ALT_STDIN_DEV);
    char c;

    if (ALT_DRIVER_READ(ALT_STDIN_DEV, &c, 1, alt_fd_list[STDIN_FILENO].fd_flags) <= 0) {
    5214:	00800074 	movhi	r2,1
    5218:	11e07d17 	ldw	r7,-32268(r2)
{
    521c:	defffe04 	addi	sp,sp,-8
    if (ALT_DRIVER_READ(ALT_STDIN_DEV, &c, 1, alt_fd_list[STDIN_FILENO].fd_flags) <= 0) {
    5220:	01000074 	movhi	r4,1
    5224:	01800044 	movi	r6,1
    5228:	d94000c4 	addi	r5,sp,3
    522c:	21209e04 	addi	r4,r4,-32136
{
    5230:	dfc00115 	stw	ra,4(sp)
    if (ALT_DRIVER_READ(ALT_STDIN_DEV, &c, 1, alt_fd_list[STDIN_FILENO].fd_flags) <= 0) {
    5234:	00055a40 	call	55a4 <altera_avalon_jtag_uart_read>
    5238:	0080040e 	bge	zero,r2,524c <alt_getchar+0x38>
        return -1;
    }
    return c;
    523c:	d88000c7 	ldb	r2,3(sp)
#else
    return getchar();
#endif
#endif
}
    5240:	dfc00117 	ldw	ra,4(sp)
    5244:	dec00204 	addi	sp,sp,8
    5248:	f800283a 	ret
        return -1;
    524c:	00bfffc4 	movi	r2,-1
    5250:	003ffb06 	br	5240 <alt_getchar+0x2c>

00005254 <getpid>:
 */
 
int ALT_GETPID (void)
{
  return 0;
}
    5254:	0005883a 	mov	r2,zero
    5258:	f800283a 	ret

0000525c <kill>:
 *
 * ALT_KILL is mapped onto the kill() system call in alt_syscall.h
 */

int ALT_KILL (int pid, int sig)
{
    525c:	defffe04 	addi	sp,sp,-8
    5260:	dfc00115 	stw	ra,4(sp)
    5264:	dc000015 	stw	r16,0(sp)
  int status = 0;

  if (pid <= 0)
    5268:	01002916 	blt	zero,r4,5310 <kill+0xb4>
  {
    switch (sig)
    526c:	28800828 	cmpgeui	r2,r5,32
    5270:	1000311e 	bne	r2,zero,5338 <kill+0xdc>
    5274:	280a90ba 	slli	r5,r5,2
    5278:	00800034 	movhi	r2,0
    527c:	2885883a 	add	r2,r5,r2
    5280:	1094a217 	ldw	r2,21128(r2)
    5284:	1000683a 	jmp	r2
    5288:	00005348 	cmpgei	zero,zero,333
    528c:	00005338 	rdprs	zero,zero,332
    5290:	00005338 	rdprs	zero,zero,332
    5294:	00005308 	cmpgei	zero,zero,332
    5298:	00005308 	cmpgei	zero,zero,332
    529c:	00005308 	cmpgei	zero,zero,332
    52a0:	00005308 	cmpgei	zero,zero,332
    52a4:	00005338 	rdprs	zero,zero,332
    52a8:	00005308 	cmpgei	zero,zero,332
    52ac:	00005308 	cmpgei	zero,zero,332
    52b0:	00005308 	cmpgei	zero,zero,332
    52b4:	00005308 	cmpgei	zero,zero,332
    52b8:	00005308 	cmpgei	zero,zero,332
    52bc:	00005308 	cmpgei	zero,zero,332
    52c0:	00005308 	cmpgei	zero,zero,332
    52c4:	00005308 	cmpgei	zero,zero,332
    52c8:	00005348 	cmpgei	zero,zero,333
    52cc:	00005338 	rdprs	zero,zero,332
    52d0:	00005338 	rdprs	zero,zero,332
    52d4:	00005338 	rdprs	zero,zero,332
    52d8:	00005348 	cmpgei	zero,zero,333
    52dc:	00005338 	rdprs	zero,zero,332
    52e0:	00005338 	rdprs	zero,zero,332
    52e4:	00005308 	cmpgei	zero,zero,332
    52e8:	00005308 	cmpgei	zero,zero,332
    52ec:	00005308 	cmpgei	zero,zero,332
    52f0:	00005308 	cmpgei	zero,zero,332
    52f4:	00005308 	cmpgei	zero,zero,332
    52f8:	00005338 	rdprs	zero,zero,332
    52fc:	00005338 	rdprs	zero,zero,332
    5300:	00005308 	cmpgei	zero,zero,332
    5304:	00005308 	cmpgei	zero,zero,332
       * The Posix standard defines the default behaviour for all these signals 
       * as being eqivalent to a call to _exit(). No mechanism is provided to 
       * change this behaviour.
       */

      _exit(0);
    5308:	0009883a 	mov	r4,zero
    530c:	000000c0 	call	c <_exit>

  else if (pid > 0)
  {
    /* Attempted to signal a non-existant process */

    status = ESRCH;
    5310:	040000c4 	movi	r16,3

extern int errno;

static ALT_INLINE int* alt_get_errno(void)
{
  return ((alt_errno) ? alt_errno() : &errno);
    5314:	d0a01217 	ldw	r2,-32696(gp)
    5318:	10000926 	beq	r2,zero,5340 <kill+0xe4>
    531c:	103ee83a 	callr	r2
  }

  if (status)
  {
    ALT_ERRNO = status;
    5320:	14000015 	stw	r16,0(r2)
    return -1;
    5324:	00bfffc4 	movi	r2,-1
  }

  return 0;
}
    5328:	dfc00117 	ldw	ra,4(sp)
    532c:	dc000017 	ldw	r16,0(sp)
    5330:	dec00204 	addi	sp,sp,8
    5334:	f800283a 	ret
  if (pid <= 0)
    5338:	04000584 	movi	r16,22
    533c:	003ff506 	br	5314 <kill+0xb8>
    5340:	d0a02704 	addi	r2,gp,-32612
    5344:	003ff606 	br	5320 <kill+0xc4>
    5348:	0005883a 	mov	r2,zero
    534c:	003ff606 	br	5328 <kill+0xcc>

00005350 <alt_load>:
 * there is no bootloader, so this application is responsible for loading to
 * RAM any sections that are required.
 */  

void alt_load (void)
{
    5350:	deffff04 	addi	sp,sp,-4

static void ALT_INLINE alt_load_section (alt_u32* from, 
                                         alt_u32* to, 
                                         alt_u32* end)
{
  if (to != from)
    5354:	01000074 	movhi	r4,1
    5358:	01400034 	movhi	r5,0
    535c:	dfc00015 	stw	ra,0(sp)
    5360:	21200004 	addi	r4,r4,-32768
    5364:	29583d04 	addi	r5,r5,24820
    5368:	21400426 	beq	r4,r5,537c <alt_load+0x2c>
  {
    while( to != end )
    {
      *to++ = *from++;
    536c:	01800074 	movhi	r6,1
    5370:	31a0a404 	addi	r6,r6,-32112
    5374:	310dc83a 	sub	r6,r6,r4
    5378:	00044ec0 	call	44ec <memcpy>
  if (to != from)
    537c:	01000034 	movhi	r4,0
    5380:	01400034 	movhi	r5,0
    5384:	21000804 	addi	r4,r4,32
    5388:	29400804 	addi	r5,r5,32
    538c:	21400426 	beq	r4,r5,53a0 <alt_load+0x50>
      *to++ = *from++;
    5390:	01800034 	movhi	r6,0
    5394:	31800804 	addi	r6,r6,32
    5398:	310dc83a 	sub	r6,r6,r4
    539c:	00044ec0 	call	44ec <memcpy>
  if (to != from)
    53a0:	01000034 	movhi	r4,0
    53a4:	01400034 	movhi	r5,0
    53a8:	21174604 	addi	r4,r4,23832
    53ac:	29574604 	addi	r5,r5,23832
    53b0:	21400426 	beq	r4,r5,53c4 <alt_load+0x74>
      *to++ = *from++;
    53b4:	01800034 	movhi	r6,0
    53b8:	31983d04 	addi	r6,r6,24820
    53bc:	310dc83a 	sub	r6,r6,r4
    53c0:	00044ec0 	call	44ec <memcpy>
  
  /*
   * Now ensure that the caches are in synch.
   */
  
  alt_dcache_flush_all();
    53c4:	0005b700 	call	5b70 <alt_dcache_flush_all>
  alt_icache_flush_all();
}
    53c8:	dfc00017 	ldw	ra,0(sp)
    53cc:	dec00104 	addi	sp,sp,4
  alt_icache_flush_all();
    53d0:	0005ca01 	jmpi	5ca0 <alt_icache_flush_all>

000053d4 <alt_main>:
 * devices/filesystems/components in the system; and call the entry point for
 * the users application, i.e. main().
 */

void alt_main (void)
{
    53d4:	deffff04 	addi	sp,sp,-4
#endif

  /* ALT LOG - please see HAL/sys/alt_log_printf.h for details */
  ALT_LOG_PRINT_BOOT("[alt_main.c] Entering alt_main, calling alt_irq_init.\r\n");
  /* Initialize the interrupt controller. */
  alt_irq_init (NULL);
    53d8:	0009883a 	mov	r4,zero
{
    53dc:	dfc00015 	stw	ra,0(sp)
  alt_irq_init (NULL);
    53e0:	00055580 	call	5558 <alt_irq_init>
  ALT_LOG_PRINT_BOOT("[alt_main.c] Done OS Init, calling alt_sem_create.\r\n");
  ALT_SEM_CREATE (&alt_fd_list_lock, 1);

  /* Initialize the device drivers/software components. */
  ALT_LOG_PRINT_BOOT("[alt_main.c] Calling alt_sys_init.\r\n");
  alt_sys_init();
    53e4:	00055840 	call	5584 <alt_sys_init>
  /* 
   * Call the C++ constructors 
   */

  ALT_LOG_PRINT_BOOT("[alt_main.c] Calling C++ constructors.\r\n");
  _do_ctors ();
    53e8:	0005be80 	call	5be8 <_do_ctors>
   */

  ALT_LOG_PRINT_BOOT("[alt_main.c] Calling main.\r\n");

#ifdef ALT_NO_EXIT
  main (alt_argc, alt_argv, alt_envp);
    53ec:	d1a02817 	ldw	r6,-32608(gp)
    53f0:	d1602917 	ldw	r5,-32604(gp)
    53f4:	d1202a17 	ldw	r4,-32600(gp)
  close(STDOUT_FILENO);
  exit (result);
#endif

  ALT_LOG_PRINT_BOOT("[alt_main.c] After main - we should not be here?.\r\n");
}
    53f8:	dfc00017 	ldw	ra,0(sp)
    53fc:	dec00104 	addi	sp,sp,4
  main (alt_argc, alt_argv, alt_envp);
    5400:	0001b3c1 	jmpi	1b3c <main>

00005404 <__malloc_lock>:
 * this requires that malloc is never called by an interrupt service routine.
 */

void __malloc_lock ( struct _reent *_r )
{
}
    5404:	f800283a 	ret

00005408 <__malloc_unlock>:
    5408:	f800283a 	ret

0000540c <alt_putchar>:
 * Uses the ALT_DRIVER_WRITE() macro to call directly to driver if available.
 * Otherwise, uses newlib provided putchar() routine.
 */
int 
alt_putchar(int c)
{
    540c:	defffd04 	addi	sp,sp,-12
    5410:	dc000115 	stw	r16,4(sp)
	char        c1 = (char)(c & 0xff);
    return write(STDOUT_FILENO,&c1,1);
#else
#ifdef ALT_USE_DIRECT_DRIVERS
    ALT_DRIVER_WRITE_EXTERNS(ALT_STDOUT_DEV);
    char        c1 = (char)(c & 0xff);
    5414:	d90000c5 	stb	r4,3(sp)
{
    5418:	2021883a 	mov	r16,r4

    if (ALT_DRIVER_WRITE(ALT_STDOUT_DEV, &c1, 1, 0) == -1) {
    541c:	01000074 	movhi	r4,1
    5420:	000f883a 	mov	r7,zero
    5424:	01800044 	movi	r6,1
    5428:	d94000c4 	addi	r5,sp,3
    542c:	21209e04 	addi	r4,r4,-32136
{
    5430:	dfc00215 	stw	ra,8(sp)
    if (ALT_DRIVER_WRITE(ALT_STDOUT_DEV, &c1, 1, 0) == -1) {
    5434:	00055fc0 	call	55fc <altera_avalon_jtag_uart_write>
    5438:	10bfffd8 	cmpnei	r2,r2,-1
    543c:	1000011e 	bne	r2,zero,5444 <alt_putchar+0x38>
        return -1;
    5440:	043fffc4 	movi	r16,-1
    return c;
#else
    return putchar(c);
#endif
#endif
}
    5444:	8005883a 	mov	r2,r16
    5448:	dfc00217 	ldw	ra,8(sp)
    544c:	dc000117 	ldw	r16,4(sp)
    5450:	dec00304 	addi	sp,sp,12
    5454:	f800283a 	ret

00005458 <alt_putstr>:
 * Uses the ALT_DRIVER_WRITE() macro to call directly to driver if available.
 * Otherwise, uses newlib provided fputs() routine.
 */
int 
alt_putstr(const char* str)
{
    5458:	defffe04 	addi	sp,sp,-8
    545c:	dc000015 	stw	r16,0(sp)
    5460:	dfc00115 	stw	ra,4(sp)
    5464:	2021883a 	mov	r16,r4
#ifdef ALT_SEMIHOSTING
    return write(STDOUT_FILENO,str,strlen(str));
#else
#ifdef ALT_USE_DIRECT_DRIVERS
    ALT_DRIVER_WRITE_EXTERNS(ALT_STDOUT_DEV);
    return ALT_DRIVER_WRITE(ALT_STDOUT_DEV, str, strlen(str), 0);
    5468:	0004ff40 	call	4ff4 <strlen>
    546c:	01000074 	movhi	r4,1
    5470:	000f883a 	mov	r7,zero
    5474:	100d883a 	mov	r6,r2
    5478:	800b883a 	mov	r5,r16
    547c:	21209e04 	addi	r4,r4,-32136
#else
    return fputs(str, stdout);
#endif
#endif
}
    5480:	dfc00117 	ldw	ra,4(sp)
    5484:	dc000017 	ldw	r16,0(sp)
    5488:	dec00204 	addi	sp,sp,8
    return ALT_DRIVER_WRITE(ALT_STDOUT_DEV, str, strlen(str), 0);
    548c:	00055fc1 	jmpi	55fc <altera_avalon_jtag_uart_write>

00005490 <sbrk>:
static ALT_INLINE alt_irq_context ALT_ALWAYS_INLINE 
       alt_irq_disable_all (void)
{
  alt_irq_context context;

  NIOS2_READ_STATUS (context);
    5490:	0007303a 	rdctl	r3,status

  NIOS2_WRITE_STATUS (context & ~NIOS2_STATUS_PIE_MSK);
    5494:	017fff84 	movi	r5,-2
    5498:	1944703a 	and	r2,r3,r5
    549c:	1001703a 	wrctl	status,r2
  char *prev_heap_end; 

  context = alt_irq_disable_all();

  /* Always return data aligned on a word boundary */
  heap_end = (char *)(((unsigned int)heap_end + 3) & ~3);
    54a0:	d0a00c17 	ldw	r2,-32720(gp)
    54a4:	01bfff04 	movi	r6,-4
    54a8:	18c0004c 	andi	r3,r3,1
    54ac:	108000c4 	addi	r2,r2,3
    54b0:	1184703a 	and	r2,r2,r6
  if (((heap_end + incr) - __alt_heap_start) > ALT_MAX_HEAP_BYTES) {
    alt_irq_enable_all(context);
    return (caddr_t)-1;
  }
#else
  if ((heap_end + incr) > __alt_heap_limit) {
    54b4:	01800074 	movhi	r6,1
  heap_end = (char *)(((unsigned int)heap_end + 3) & ~3);
    54b8:	d0a00c15 	stw	r2,-32720(gp)
  if ((heap_end + incr) > __alt_heap_limit) {
    54bc:	1109883a 	add	r4,r2,r4
    54c0:	31a40004 	addi	r6,r6,-28672
    54c4:	3100062e 	bgeu	r6,r4,54e0 <sbrk+0x50>
{
#if (NIOS2_NUM_OF_SHADOW_REG_SETS > 0) || (defined NIOS2_EIC_PRESENT) || \
    (defined NIOS2_MMU_PRESENT) || (defined NIOS2_MPU_PRESENT)
  alt_irq_context status;
  
  NIOS2_READ_STATUS (status);
    54c8:	0009303a 	rdctl	r4,status
  
  status &= ~NIOS2_STATUS_PIE_MSK;
    54cc:	2148703a 	and	r4,r4,r5
  status |= (context & NIOS2_STATUS_PIE_MSK);
    54d0:	1906b03a 	or	r3,r3,r4
  
  NIOS2_WRITE_STATUS (status);
    54d4:	1801703a 	wrctl	status,r3
    alt_irq_enable_all(context);
    return (caddr_t)-1;
    54d8:	00bfffc4 	movi	r2,-1
    54dc:	f800283a 	ret
  }
#endif

  prev_heap_end = heap_end; 
  heap_end += incr; 
    54e0:	d1200c15 	stw	r4,-32720(gp)
  NIOS2_READ_STATUS (status);
    54e4:	0009303a 	rdctl	r4,status
  status &= ~NIOS2_STATUS_PIE_MSK;
    54e8:	2148703a 	and	r4,r4,r5
  status |= (context & NIOS2_STATUS_PIE_MSK);
    54ec:	1906b03a 	or	r3,r3,r4
  NIOS2_WRITE_STATUS (status);
    54f0:	1801703a 	wrctl	status,r3
#endif

  alt_irq_enable_all(context);

  return (caddr_t) prev_heap_end; 
} 
    54f4:	f800283a 	ret

000054f8 <usleep>:
int ALT_USLEEP (useconds_t us)
#else
unsigned int ALT_USLEEP (unsigned int us)
#endif
{
  return alt_busy_sleep(us);
    54f8:	0005aec1 	jmpi	5aec <alt_busy_sleep>

000054fc <write>:
#if !defined(ALT_STDOUT_PRESENT) && !defined(ALT_STDERR_PRESENT)
    /* Generate a link time warning, should this function ever be called. */
    ALT_STUB_WARNING(write);
#endif

    switch (file) {
    54fc:	213fffc4 	addi	r4,r4,-1
    5500:	210000a8 	cmpgeui	r4,r4,2
    5504:	2000041e 	bne	r4,zero,5518 <write+0x1c>
#ifdef ALT_STDOUT_PRESENT
    case 1: /* stdout file descriptor */
        return ALT_DRIVER_WRITE(ALT_STDOUT_DEV, ptr, len, 0);
    5508:	01000074 	movhi	r4,1
    550c:	000f883a 	mov	r7,zero
    5510:	21209e04 	addi	r4,r4,-32136
    5514:	00055fc1 	jmpi	55fc <altera_avalon_jtag_uart_write>
    5518:	d0a01217 	ldw	r2,-32696(gp)
    551c:	10000926 	beq	r2,zero,5544 <write+0x48>
{
    5520:	deffff04 	addi	sp,sp,-4
    5524:	dfc00015 	stw	ra,0(sp)
    5528:	103ee83a 	callr	r2
#ifdef ALT_STDERR_PRESENT
    case 2: /* stderr file descriptor */
        return ALT_DRIVER_WRITE(ALT_STDERR_DEV, ptr, len, 0);
#endif /* ALT_STDERR_PRESENT */
    default:
        ALT_ERRNO = EBADFD;
    552c:	00c01444 	movi	r3,81
    5530:	10c00015 	stw	r3,0(r2)
        return -1;
    }
}
    5534:	00bfffc4 	movi	r2,-1
    5538:	dfc00017 	ldw	ra,0(sp)
    553c:	dec00104 	addi	sp,sp,4
    5540:	f800283a 	ret
    5544:	d0a02704 	addi	r2,gp,-32612
        ALT_ERRNO = EBADFD;
    5548:	00c01444 	movi	r3,81
    554c:	10c00015 	stw	r3,0(r2)
}
    5550:	00bfffc4 	movi	r2,-1
    5554:	f800283a 	ret

00005558 <alt_irq_init>:
 * present for backwards-compatibility.
 */

void alt_irq_init ( const void* base )
{
    ALTERA_VIC_IRQ_INIT ( VIC_0, vic_0);
    5558:	01000074 	movhi	r4,1
{
    555c:	deffff04 	addi	sp,sp,-4
    ALTERA_VIC_IRQ_INIT ( VIC_0, vic_0);
    5560:	21205404 	addi	r4,r4,-32432
{
    5564:	dfc00015 	stw	ra,0(sp)
    ALTERA_VIC_IRQ_INIT ( VIC_0, vic_0);
    5568:	00059d40 	call	59d4 <alt_vic_irq_init>
 * alt_irq_cpu_enable_interrupts() enables the CPU to start taking interrupts.
 */
static ALT_INLINE void ALT_ALWAYS_INLINE 
       alt_irq_cpu_enable_interrupts (void)
{
    NIOS2_WRITE_STATUS(NIOS2_STATUS_PIE_MSK
    556c:	00802034 	movhi	r2,128
    5570:	10800044 	addi	r2,r2,1
    5574:	1001703a 	wrctl	status,r2
    alt_irq_cpu_enable_interrupts();
}
    5578:	dfc00017 	ldw	ra,0(sp)
    557c:	dec00104 	addi	sp,sp,4
    5580:	f800283a 	ret

00005584 <alt_sys_init>:

void alt_sys_init( void )
{
    ALTERA_AVALON_TIMER_INIT ( TIMER_0, timer_0);
    ALTERA_AVALON_JTAG_UART_INIT ( JTAG_UART_0, jtag_uart_0);
    ALTERA_AVALON_PERFORMANCE_COUNTER_INIT ( PERFORMANCE_COUNTER_0, performance_counter_0);
    5584:	00c00044 	movi	r3,1
    5588:	00b1c014 	movui	r2,50944
    558c:	10c00035 	stwio	r3,0(r2)
    ALTERA_AVALON_SPI_INIT ( SPIM_0, spim_0);
    ALTERA_AVALON_SYSID_QSYS_INIT ( SYSID_QSYS_0, sysid_qsys_0);
    ALTERA_MSGDMA_INIT ( MSGDMA_0, msgdma_0);
    5590:	01000074 	movhi	r4,1
    5594:	21203c04 	addi	r4,r4,-32528
    5598:	21800817 	ldw	r6,32(r4)
    559c:	21400717 	ldw	r5,28(r4)
    55a0:	000584c1 	jmpi	584c <alt_msgdma_init>

000055a4 <altera_avalon_jtag_uart_read>:

int 
altera_avalon_jtag_uart_read(altera_avalon_jtag_uart_state* sp, 
  char* buffer, int space, int flags)
{
  unsigned int base = sp->base;
    55a4:	21000017 	ldw	r4,0(r4)

  char * ptr = buffer;
  char * end = buffer + space;
    55a8:	298d883a 	add	r6,r5,r6

  while (ptr < end)
    55ac:	2805883a 	mov	r2,r5

    if (data & ALTERA_AVALON_JTAG_UART_DATA_RVALID_MSK)
      *ptr++ = (data & ALTERA_AVALON_JTAG_UART_DATA_DATA_MSK) >> ALTERA_AVALON_JTAG_UART_DATA_DATA_OFST;
    else if (ptr != buffer)
      break;
    else if(flags & O_NONBLOCK)
    55b0:	3a10000c 	andi	r8,r7,16384
  while (ptr < end)
    55b4:	11800536 	bltu	r2,r6,55cc <altera_avalon_jtag_uart_read+0x28>
      break;   
    
  }

  if (ptr != buffer)
    55b8:	11400b1e 	bne	r2,r5,55e8 <altera_avalon_jtag_uart_read+0x44>
    return ptr - buffer;
  else if (flags & O_NONBLOCK)
    55bc:	39d0000c 	andi	r7,r7,16384
    55c0:	38000c1e 	bne	r7,zero,55f4 <altera_avalon_jtag_uart_read+0x50>
    return -EWOULDBLOCK;
  else
    return -EIO;
    55c4:	00bffec4 	movi	r2,-5
}
    55c8:	f800283a 	ret
    unsigned int data = IORD_ALTERA_AVALON_JTAG_UART_DATA(base);
    55cc:	20c00037 	ldwio	r3,0(r4)
    if (data & ALTERA_AVALON_JTAG_UART_DATA_RVALID_MSK)
    55d0:	1a60000c 	andi	r9,r3,32768
    55d4:	48000326 	beq	r9,zero,55e4 <altera_avalon_jtag_uart_read+0x40>
      *ptr++ = (data & ALTERA_AVALON_JTAG_UART_DATA_DATA_MSK) >> ALTERA_AVALON_JTAG_UART_DATA_DATA_OFST;
    55d8:	10c00005 	stb	r3,0(r2)
    55dc:	10800044 	addi	r2,r2,1
    55e0:	003ff406 	br	55b4 <altera_avalon_jtag_uart_read+0x10>
    else if (ptr != buffer)
    55e4:	11400226 	beq	r2,r5,55f0 <altera_avalon_jtag_uart_read+0x4c>
    return ptr - buffer;
    55e8:	1145c83a 	sub	r2,r2,r5
    55ec:	f800283a 	ret
    else if(flags & O_NONBLOCK)
    55f0:	403ff026 	beq	r8,zero,55b4 <altera_avalon_jtag_uart_read+0x10>
    return -EWOULDBLOCK;
    55f4:	00bffd44 	movi	r2,-11
    55f8:	f800283a 	ret

000055fc <altera_avalon_jtag_uart_write>:
 */

int altera_avalon_jtag_uart_write(altera_avalon_jtag_uart_state* sp, 
  const char * ptr, int count, int flags)
{
  unsigned int base = sp->base;
    55fc:	21000017 	ldw	r4,0(r4)
{
    5600:	3005883a 	mov	r2,r6

  const char * end = ptr + count;
    5604:	298d883a 	add	r6,r5,r6

  while (ptr < end)
    5608:	29800136 	bltu	r5,r6,5610 <altera_avalon_jtag_uart_write+0x14>
    if ((IORD_ALTERA_AVALON_JTAG_UART_CONTROL(base) & ALTERA_AVALON_JTAG_UART_CONTROL_WSPACE_MSK) != 0)
      IOWR_ALTERA_AVALON_JTAG_UART_DATA(base, *ptr++);

  return count;
}
    560c:	f800283a 	ret
    if ((IORD_ALTERA_AVALON_JTAG_UART_CONTROL(base) & ALTERA_AVALON_JTAG_UART_CONTROL_WSPACE_MSK) != 0)
    5610:	20c00137 	ldwio	r3,4(r4)
    5614:	18ffffec 	andhi	r3,r3,65535
    5618:	183ffb26 	beq	r3,zero,5608 <altera_avalon_jtag_uart_write+0xc>
      IOWR_ALTERA_AVALON_JTAG_UART_DATA(base, *ptr++);
    561c:	28c00007 	ldb	r3,0(r5)
    5620:	29400044 	addi	r5,r5,1
    5624:	20c00035 	stwio	r3,0(r4)
    5628:	003ff706 	br	5608 <altera_avalon_jtag_uart_write+0xc>

0000562c <perf_get_section_time>:
{
  alt_u32 lo;
  alt_u32 hi;
  alt_u64 result = 0;

  PERF_STOP_MEASURING(hw_base_address);
    562c:	20000035 	stwio	zero,0(r4)
  lo = IORD(hw_base_address, ( which_section*4   ));
    5630:	2804913a 	slli	r2,r5,4
    5634:	2085883a 	add	r2,r4,r2
    5638:	10800037 	ldwio	r2,0(r2)
  hi = IORD(hw_base_address, ((which_section*4)+1));
    563c:	280a913a 	slli	r5,r5,4
    5640:	29400104 	addi	r5,r5,4
    5644:	214b883a 	add	r5,r4,r5
    5648:	28c00037 	ldwio	r3,0(r5)

  result = ((alt_u64)(((alt_u64) hi) << ((alt_u64)32))) | 
           ((alt_u64)(((alt_u64) lo)                 ))  ;
  return result;
}
    564c:	f800283a 	ret

00005650 <alt_avalon_spi_command>:

int alt_avalon_spi_command(alt_u32 base, alt_u32 slave,
                           alt_u32 write_length, const alt_u8 * write_data,
                           alt_u32 read_length, alt_u8 * read_data,
                           alt_u32 flags)
{
    5650:	d8800017 	ldw	r2,0(sp)
    5654:	da000117 	ldw	r8,4(sp)
  /* Warning: this function is not currently safe if called in a multi-threaded
   * environment, something above must perform locking to make it safe if more
   * than one thread intends to use it.
   */

  IOWR_ALTERA_AVALON_SPI_SLAVE_SEL(base, 1 << slave);
    5658:	00c00044 	movi	r3,1
{
    565c:	da400217 	ldw	r9,8(sp)
  IOWR_ALTERA_AVALON_SPI_SLAVE_SEL(base, 1 << slave);
    5660:	1946983a 	sll	r3,r3,r5
  const alt_u8 * write_end = write_data + write_length;
    5664:	399d883a 	add	r14,r7,r6
  alt_u8 * read_end = read_data + read_length;
    5668:	409b883a 	add	r13,r8,r2
  IOWR_ALTERA_AVALON_SPI_SLAVE_SEL(base, 1 << slave);
    566c:	20c00535 	stwio	r3,20(r4)
  
  /* Set the SSO bit (force chipselect) only if the toggle flag is not set */
  if ((flags & ALT_AVALON_SPI_COMMAND_TOGGLE_SS_N) == 0) {
    5670:	48c0008c 	andi	r3,r9,2
    5674:	1800021e 	bne	r3,zero,5680 <alt_avalon_spi_command+0x30>
    IOWR_ALTERA_AVALON_SPI_CONTROL(base, ALTERA_AVALON_SPI_CONTROL_SSO_MSK);
    5678:	00c10004 	movi	r3,1024
    567c:	20c00335 	stwio	r3,12(r4)
  /*
   * Discard any stale data present in the RXDATA register, in case
   * previous communication was interrupted and stale data was left
   * behind.
   */
  IORD_ALTERA_AVALON_SPI_RXDATA(base);
    5680:	20c00037 	ldwio	r3,0(r4)
  alt_32 credits = 1;
    5684:	00c00044 	movi	r3,1
  alt_u32 write_zeros = read_length;
    5688:	1015883a 	mov	r10,r2
  for ( ; ; )
  {
    
    do
    {
      status = IORD_ALTERA_AVALON_SPI_STATUS(base);
    568c:	23000204 	addi	r12,r4,8
    5690:	21400237 	ldwio	r5,8(r4)
    }
    while (((status & ALTERA_AVALON_SPI_STATUS_TRDY_MSK) == 0 || credits == 0) &&
    5694:	2ac0100c 	andi	r11,r5,64
    5698:	2940200c 	andi	r5,r5,128
            (status & ALTERA_AVALON_SPI_STATUS_RRDY_MSK) == 0);
    569c:	58000126 	beq	r11,zero,56a4 <alt_avalon_spi_command+0x54>
    while (((status & ALTERA_AVALON_SPI_STATUS_TRDY_MSK) == 0 || credits == 0) &&
    56a0:	1800021e 	bne	r3,zero,56ac <alt_avalon_spi_command+0x5c>
    56a4:	283ff926 	beq	r5,zero,568c <alt_avalon_spi_command+0x3c>

    if ((status & ALTERA_AVALON_SPI_STATUS_TRDY_MSK) != 0 && credits > 0)
    56a8:	58000726 	beq	r11,zero,56c8 <alt_avalon_spi_command+0x78>
    56ac:	00c0060e 	bge	zero,r3,56c8 <alt_avalon_spi_command+0x78>
    {
      credits--;
    56b0:	18ffffc4 	addi	r3,r3,-1

      if (write_data < write_end)
    56b4:	3b80122e 	bgeu	r7,r14,5700 <alt_avalon_spi_command+0xb0>
        IOWR_ALTERA_AVALON_SPI_TXDATA(base, *write_data++);
    56b8:	3ac00044 	addi	r11,r7,1
    56bc:	39c00003 	ldbu	r7,0(r7)
    56c0:	21c00135 	stwio	r7,4(r4)
    56c4:	580f883a 	mov	r7,r11
      }
      else
        credits = -1024;
    };

    if ((status & ALTERA_AVALON_SPI_STATUS_RRDY_MSK) != 0)
    56c8:	283ff026 	beq	r5,zero,568c <alt_avalon_spi_command+0x3c>
    {
      alt_u32 rxdata = IORD_ALTERA_AVALON_SPI_RXDATA(base);
    56cc:	21400037 	ldwio	r5,0(r4)

      if (read_ignore > 0)
    56d0:	30001126 	beq	r6,zero,5718 <alt_avalon_spi_command+0xc8>
        read_ignore--;
    56d4:	31bfffc4 	addi	r6,r6,-1
      else
        *read_data++ = (alt_u8)rxdata;
      credits++;
    56d8:	18c00044 	addi	r3,r3,1

      if (read_ignore == 0 && read_data == read_end)
    56dc:	303feb1e 	bne	r6,zero,568c <alt_avalon_spi_command+0x3c>
    56e0:	437fea1e 	bne	r8,r13,568c <alt_avalon_spi_command+0x3c>
  }

  /* Wait until the interface has finished transmitting */
  do
  {
    status = IORD_ALTERA_AVALON_SPI_STATUS(base);
    56e4:	60c00037 	ldwio	r3,0(r12)
  }
  while ((status & ALTERA_AVALON_SPI_STATUS_TMT_MSK) == 0);
    56e8:	18c0080c 	andi	r3,r3,32
    56ec:	183ffd26 	beq	r3,zero,56e4 <alt_avalon_spi_command+0x94>

  /* Clear SSO (release chipselect) unless the caller is going to
   * keep using this chip
   */
  if ((flags & ALT_AVALON_SPI_COMMAND_MERGE) == 0)
    56f0:	4a40004c 	andi	r9,r9,1
    56f4:	4800011e 	bne	r9,zero,56fc <alt_avalon_spi_command+0xac>
    IOWR_ALTERA_AVALON_SPI_CONTROL(base, 0);
    56f8:	20000335 	stwio	zero,12(r4)

  return read_length;
}
    56fc:	f800283a 	ret
      else if (write_zeros > 0)
    5700:	50000326 	beq	r10,zero,5710 <alt_avalon_spi_command+0xc0>
        write_zeros--;
    5704:	52bfffc4 	addi	r10,r10,-1
        IOWR_ALTERA_AVALON_SPI_TXDATA(base, 0);
    5708:	20000135 	stwio	zero,4(r4)
    570c:	003fee06 	br	56c8 <alt_avalon_spi_command+0x78>
        credits = -1024;
    5710:	00ff0004 	movi	r3,-1024
    5714:	003fec06 	br	56c8 <alt_avalon_spi_command+0x78>
        *read_data++ = (alt_u8)rxdata;
    5718:	41400005 	stb	r5,0(r8)
    571c:	42000044 	addi	r8,r8,1
    5720:	003fed06 	br	56d8 <alt_avalon_spi_command+0x88>

00005724 <alt_msgdma_irq>:
 * alt_msgdma_irq()
 *
 * Interrupt handler for the Modular Scatter-Gather DMA controller.
 */
static void alt_msgdma_irq(void *context)
{
    5724:	defffc04 	addi	sp,sp,-16
    5728:	dc000015 	stw	r16,0(sp)
    572c:	dfc00315 	stw	ra,12(sp)
    5730:	dc800215 	stw	r18,8(sp)
    5734:	dc400115 	stw	r17,4(sp)
    alt_irq_context cpu_sr;
    alt_u32 temporary_control;

    
    /* disable global interrupt*/
    if (dev->prefetcher_enable)
    5738:	20801783 	ldbu	r2,94(r4)
{
    573c:	2021883a 	mov	r16,r4
    if (dev->prefetcher_enable)
    5740:	10002126 	beq	r2,zero,57c8 <alt_msgdma_irq+0xa4>
    {
        temporary_control = 
                IORD_ALT_MSGDMA_PREFETCHER_CONTROL(dev->prefetcher_base)
    5744:	20c00617 	ldw	r3,24(r4)
    5748:	18800037 	ldwio	r2,0(r3)
        temporary_control = 
    574c:	013ffdc4 	movi	r4,-9
    5750:	1104703a 	and	r2,r2,r4
                & ALT_MSGDMA_PREFETCHER_CTRL_GLOBAL_INTR_EN_CLR_MASK;
        
        IOWR_ALT_MSGDMA_PREFETCHER_CONTROL(dev->prefetcher_base,
    5754:	18800035 	stwio	r2,0(r3)
                temporary_control);
        
        /* clear the IRQ status- W1C */
        IOWR_ALT_MSGDMA_PREFETCHER_STATUS(dev->prefetcher_base,
    5758:	80800617 	ldw	r2,24(r16)
    575c:	00c00044 	movi	r3,1
    5760:	10c00435 	stwio	r3,16(r2)
    * Other interrupts are explicitly disabled if callbacks
    * are registered because there is no guarantee that they are 
    * pre-emption-safe. This allows the driver to support 
    * interrupt pre-emption.
    */
    if(dev->callback) 
    5764:	80800b17 	ldw	r2,44(r16)
    5768:	10000b26 	beq	r2,zero,5798 <alt_msgdma_irq+0x74>
  NIOS2_READ_STATUS (context);
    576c:	0023303a 	rdctl	r17,status
  NIOS2_WRITE_STATUS (context & ~NIOS2_STATUS_PIE_MSK);
    5770:	04bfff84 	movi	r18,-2
    5774:	8c86703a 	and	r3,r17,r18
    5778:	1801703a 	wrctl	status,r3
    {
        cpu_sr = alt_irq_disable_all();
        dev->callback (dev->callback_context);
    577c:	81000c17 	ldw	r4,48(r16)
    5780:	103ee83a 	callr	r2
  NIOS2_READ_STATUS (status);
    5784:	0005303a 	rdctl	r2,status
  status &= ~NIOS2_STATUS_PIE_MSK;
    5788:	1484703a 	and	r2,r2,r18
  status |= (context & NIOS2_STATUS_PIE_MSK);
    578c:	8c40004c 	andi	r17,r17,1
    5790:	88a2b03a 	or	r17,r17,r2
  NIOS2_WRITE_STATUS (status);
    5794:	8801703a 	wrctl	status,r17
        alt_irq_enable_all(cpu_sr);
    }

    /* enable global interrupt */
    if (dev->prefetcher_enable)
    5798:	80801783 	ldbu	r2,94(r16)
    579c:	10001326 	beq	r2,zero,57ec <alt_msgdma_irq+0xc8>
    {
        temporary_control = 
                IORD_ALT_MSGDMA_PREFETCHER_CONTROL(dev->prefetcher_base)
    57a0:	80c00617 	ldw	r3,24(r16)
    57a4:	18800037 	ldwio	r2,0(r3)
                | ALT_MSGDMA_PREFETCHER_CTRL_GLOBAL_INTR_EN_SET_MASK;
    57a8:	10800214 	ori	r2,r2,8
        
        IOWR_ALT_MSGDMA_PREFETCHER_CONTROL(dev->prefetcher_base,
    57ac:	18800035 	stwio	r2,0(r3)
        
        IOWR_ALTERA_MSGDMA_CSR_CONTROL(dev->csr_base, temporary_control);
    }

    return;
}
    57b0:	dfc00317 	ldw	ra,12(sp)
    57b4:	dc800217 	ldw	r18,8(sp)
    57b8:	dc400117 	ldw	r17,4(sp)
    57bc:	dc000017 	ldw	r16,0(sp)
    57c0:	dec00404 	addi	sp,sp,16
    57c4:	f800283a 	ret
        temporary_control = IORD_ALTERA_MSGDMA_CSR_CONTROL(dev->csr_base)
    57c8:	20c00317 	ldw	r3,12(r4)
    57cc:	18800137 	ldwio	r2,4(r3)
    57d0:	013ffbc4 	movi	r4,-17
    57d4:	1104703a 	and	r2,r2,r4
        IOWR_ALTERA_MSGDMA_CSR_CONTROL(dev->csr_base, temporary_control);
    57d8:	18800135 	stwio	r2,4(r3)
        IOWR_ALTERA_MSGDMA_CSR_STATUS(dev->csr_base,
    57dc:	80800317 	ldw	r2,12(r16)
    57e0:	00c08004 	movi	r3,512
    57e4:	10c00035 	stwio	r3,0(r2)
    57e8:	003fde06 	br	5764 <alt_msgdma_irq+0x40>
        temporary_control = IORD_ALTERA_MSGDMA_CSR_CONTROL(dev->csr_base) 
    57ec:	80c00317 	ldw	r3,12(r16)
    57f0:	18800137 	ldwio	r2,4(r3)
                | (ALTERA_MSGDMA_CSR_GLOBAL_INTERRUPT_MASK);
    57f4:	10800414 	ori	r2,r2,16
        IOWR_ALTERA_MSGDMA_CSR_CONTROL(dev->csr_base, temporary_control);
    57f8:	18800135 	stwio	r2,4(r3)
    return;
    57fc:	003fec06 	br	57b0 <alt_msgdma_irq+0x8c>

00005800 <alt_msgdma_open>:
 * Returns:
 * - Pointer to msgdma device instance structure, or null if the device
 *   could not be opened.
 */
alt_msgdma_dev* alt_msgdma_open (const char* name)
{
    5800:	defffe04 	addi	sp,sp,-8
    alt_msgdma_dev* dev = NULL;

    dev = (alt_msgdma_dev*) alt_find_dev (name, &alt_msgdma_list);
    5804:	d1600e04 	addi	r5,gp,-32712
{
    5808:	dc000015 	stw	r16,0(sp)
    580c:	dfc00115 	stw	ra,4(sp)
    dev = (alt_msgdma_dev*) alt_find_dev (name, &alt_msgdma_list);
    5810:	0005c300 	call	5c30 <alt_find_dev>
    5814:	1021883a 	mov	r16,r2

    if (NULL == dev)
    5818:	1000051e 	bne	r2,zero,5830 <alt_msgdma_open+0x30>
    581c:	d0a01217 	ldw	r2,-32696(gp)
    5820:	10000826 	beq	r2,zero,5844 <alt_msgdma_open+0x44>
    5824:	103ee83a 	callr	r2
    {
        ALT_ERRNO = ENODEV;
    5828:	00c004c4 	movi	r3,19
    582c:	10c00015 	stw	r3,0(r2)
    }

    return dev;
}
    5830:	8005883a 	mov	r2,r16
    5834:	dfc00117 	ldw	ra,4(sp)
    5838:	dc000017 	ldw	r16,0(sp)
    583c:	dec00204 	addi	sp,sp,8
    5840:	f800283a 	ret
    5844:	d0a02704 	addi	r2,gp,-32612
    5848:	003ff706 	br	5828 <alt_msgdma_open+0x28>

0000584c <alt_msgdma_init>:
 * This routine disables interrupts, descriptor processing,
 * registers a specific instance of the device with the HAL,
 * and installs an interrupt handler for the device.
 */
void alt_msgdma_init (alt_msgdma_dev *dev, alt_u32 ic_id, alt_u32 irq)
{
    584c:	defffb04 	addi	sp,sp,-20
    5850:	dc800315 	stw	r18,12(sp)
    5854:	dc400215 	stw	r17,8(sp)
    5858:	dc000115 	stw	r16,4(sp)
    585c:	dfc00415 	stw	ra,16(sp)
    extern alt_llist alt_msgdma_list;
    alt_u32 temporary_control;
    int error;

    if (dev->prefetcher_enable)
    5860:	20801783 	ldbu	r2,94(r4)
{
    5864:	2021883a 	mov	r16,r4
    5868:	2823883a 	mov	r17,r5
    586c:	3025883a 	mov	r18,r6
    if (dev->prefetcher_enable)
    5870:	10000726 	beq	r2,zero,5890 <alt_msgdma_init+0x44>
    {
        /* start prefetcher reset sequence */
        IOWR_ALT_MSGDMA_PREFETCHER_CONTROL(dev->prefetcher_base, 
    5874:	20800617 	ldw	r2,24(r4)
    5878:	00c00104 	movi	r3,4
    587c:	10c00035 	stwio	r3,0(r2)
                ALT_MSGDMA_PREFETCHER_CTRL_RESET_SET_MASK);
        /* wait until hw clears the bit */
        while(ALT_MSGDMA_PREFETCHER_CTRL_RESET_GET(
    5880:	80800617 	ldw	r2,24(r16)
    5884:	10800037 	ldwio	r2,0(r2)
    5888:	1080010c 	andi	r2,r2,4
    588c:	103ffc1e 	bne	r2,zero,5880 <alt_msgdma_init+0x34>
    }    
    
    /* Reset the registers and FIFOs of the dispatcher and master modules */
    /* set the reset bit, no need to read the control register first since 
    this write is going to clear it out */
    IOWR_ALTERA_MSGDMA_CSR_CONTROL(dev->csr_base, ALTERA_MSGDMA_CSR_RESET_MASK);
    5890:	80800317 	ldw	r2,12(r16)
    5894:	00c00084 	movi	r3,2
    5898:	10c00135 	stwio	r3,4(r2)
    while(0 != (IORD_ALTERA_MSGDMA_CSR_STATUS(dev->csr_base)
    589c:	80c00317 	ldw	r3,12(r16)
    58a0:	18800037 	ldwio	r2,0(r3)
            & ALTERA_MSGDMA_CSR_RESET_STATE_MASK));
    58a4:	1080100c 	andi	r2,r2,64
    while(0 != (IORD_ALTERA_MSGDMA_CSR_STATUS(dev->csr_base)
    58a8:	103ffc1e 	bne	r2,zero,589c <alt_msgdma_init+0x50>
    * Disable interrupts, halt descriptor processing,
    * and clear status register content
    */

    /* disable global interrupt */
    temporary_control = IORD_ALTERA_MSGDMA_CSR_CONTROL(dev->csr_base)
    58ac:	18800137 	ldwio	r2,4(r3)
    58b0:	013ffbc4 	movi	r4,-17
    58b4:	1104703a 	and	r2,r2,r4
            & (~ALTERA_MSGDMA_CSR_GLOBAL_INTERRUPT_MASK);
    /* stopping descriptor */
    temporary_control |= ALTERA_MSGDMA_CSR_STOP_DESCRIPTORS_MASK;
    58b8:	10800814 	ori	r2,r2,32
    IOWR_ALTERA_MSGDMA_CSR_CONTROL(dev->csr_base, temporary_control);
    58bc:	18800135 	stwio	r2,4(r3)

    /* clear the CSR status register */
    IOWR_ALTERA_MSGDMA_CSR_STATUS(dev->csr_base, 
    58c0:	80800317 	ldw	r2,12(r16)
    58c4:	10c00037 	ldwio	r3,0(r2)
    58c8:	10c00035 	stwio	r3,0(r2)
            IORD_ALTERA_MSGDMA_CSR_STATUS(dev->csr_base));
    
    if (dev->prefetcher_enable)
    58cc:	80801783 	ldbu	r2,94(r16)
    58d0:	10000326 	beq	r2,zero,58e0 <alt_msgdma_init+0x94>
    {
        /* clear all status bits that are set, since theyre W1C */
        IOWR_ALT_MSGDMA_PREFETCHER_STATUS(dev->prefetcher_base, 
    58d4:	80800617 	ldw	r2,24(r16)
    58d8:	10c00437 	ldwio	r3,16(r2)
    58dc:	10c00435 	stwio	r3,16(r2)
                IORD_ALT_MSGDMA_PREFETCHER_STATUS(dev->prefetcher_base));
    }

    /* Register this instance of the msgdma controller with HAL */
    alt_dev_llist_insert((alt_dev_llist*) dev, &alt_msgdma_list);
    58e0:	8009883a 	mov	r4,r16
    58e4:	d1600e04 	addi	r5,gp,-32712
    58e8:	0005b7c0 	call	5b7c <alt_dev_llist_insert>
    error = ALT_SEM_CREATE (&dev->regs_lock, 1);
            
    if (!error)
    {        
        /* Install IRQ handler */
        alt_ic_isr_register(ic_id, irq, alt_msgdma_irq, dev, 0x0);
    58ec:	01800034 	movhi	r6,0
    58f0:	d8000015 	stw	zero,0(sp)
    58f4:	800f883a 	mov	r7,r16
    58f8:	3195c904 	addi	r6,r6,22308
    58fc:	900b883a 	mov	r5,r18
    5900:	8809883a 	mov	r4,r17
    5904:	0005a700 	call	5a70 <alt_ic_isr_register>
        alt_printf("failed to create semaphores\n");
    }
    
    return;

}
    5908:	dfc00417 	ldw	ra,16(sp)
    590c:	dc800317 	ldw	r18,12(sp)
    5910:	dc400217 	ldw	r17,8(sp)
    5914:	dc000117 	ldw	r16,4(sp)
    5918:	dec00504 	addi	sp,sp,20
    591c:	f800283a 	ret

00005920 <VIC_0_VECTOR_TABLE>:

    .section .text, "xa"
    .align 2
    .globl VIC_0_VECTOR_TABLE
VIC_0_VECTOR_TABLE:
     ALT_SHADOW_NON_PREEMPTIVE_INTERRUPT    16
    5920:	0030e03a 	nextpc	et
    5924:	00059b01 	jmpi	59b0 <alt_shadow_non_preemptive_interrupt>
	...
     ALT_SHADOW_NON_PREEMPTIVE_INTERRUPT    16
    5930:	0030e03a 	nextpc	et
    5934:	00059b01 	jmpi	59b0 <alt_shadow_non_preemptive_interrupt>
	...
     ALT_SHADOW_NON_PREEMPTIVE_INTERRUPT    16
    5940:	0030e03a 	nextpc	et
    5944:	00059b01 	jmpi	59b0 <alt_shadow_non_preemptive_interrupt>
	...
     ALT_SHADOW_NON_PREEMPTIVE_INTERRUPT    16
    5950:	0030e03a 	nextpc	et
    5954:	00059b01 	jmpi	59b0 <alt_shadow_non_preemptive_interrupt>
	...
     ALT_SHADOW_NON_PREEMPTIVE_INTERRUPT    16
    5960:	0030e03a 	nextpc	et
    5964:	00059b01 	jmpi	59b0 <alt_shadow_non_preemptive_interrupt>
	...
     ALT_SHADOW_NON_PREEMPTIVE_INTERRUPT    16
    5970:	0030e03a 	nextpc	et
    5974:	00059b01 	jmpi	59b0 <alt_shadow_non_preemptive_interrupt>
	...
     ALT_SHADOW_NON_PREEMPTIVE_INTERRUPT    16
    5980:	0030e03a 	nextpc	et
    5984:	00059b01 	jmpi	59b0 <alt_shadow_non_preemptive_interrupt>
	...
     ALT_SHADOW_NON_PREEMPTIVE_INTERRUPT    16
    5990:	0030e03a 	nextpc	et
    5994:	00059b01 	jmpi	59b0 <alt_shadow_non_preemptive_interrupt>
	...
     ALT_SHADOW_NON_PREEMPTIVE_INTERRUPT    16
    59a0:	0030e03a 	nextpc	et
    59a4:	00059b01 	jmpi	59b0 <alt_shadow_non_preemptive_interrupt>
	...

000059b0 <alt_shadow_non_preemptive_interrupt>:
    .section ALTERA_VIC_DRIVER_LINKER_SECTION
    .set nobreak
    .globl alt_shadow_non_preemptive_interrupt
alt_shadow_non_preemptive_interrupt:

    ldw r16, 4(et)               /* load ISR pointer */
    59b0:	c4000117 	ldw	r16,4(et)

     /*
      * Get SP from previous register set.
      */

    rdprs sp, sp, 0
    59b4:	dec00038 	rdprs	sp,sp,0
   */
    ALT_OS_INT_ENTER_ASM

    /* Re-enable interrupts if preemption into a new register set is enabled */
#ifdef ALTERA_VIC_DRIVER_PREEMPTION_INTO_NEW_REGISTER_SET_ENABLED
    rdctl r5, status
    59b8:	000b303a 	rdctl	r5,status
    ori   r5, r5, NIOS2_STATUS_PIE_MSK
    59bc:	29400054 	ori	r5,r5,1
    wrctl status, r5
    59c0:	2801703a 	wrctl	status,r5
#endif

    ldw r4, 8(et)               /* load isr_context */
    59c4:	c1000217 	ldw	r4,8(et)
    callr r16                   /* call ISR */
    59c8:	803ee83a 	callr	r16
    /*
     * Notify the operating system that interrupt processing is complete.
     */
    ALT_OS_INT_EXIT_ASM

    addi ea, ea, -4             /* instruction that caused exception */
    59cc:	ef7fff04 	addi	ea,ea,-4
    eret
    59d0:	ef80083a 	eret

000059d4 <alt_vic_irq_init>:
{
    alt_u32 i;
    static const int VEC_SIZE_ARRAY[]={4, 8, 16, 32, 64, 128, 256, 512};

    /* Stores the VIC instance to list */
    alt_vic_dev_list[pdev->intr_controller_id] = pdev;
    59d4:	20800117 	ldw	r2,4(r4)
    59d8:	100690ba 	slli	r3,r2,2
    59dc:	d0a02b04 	addi	r2,gp,-32596
    59e0:	10c5883a 	add	r2,r2,r3
    59e4:	11000015 	stw	r4,0(r2)

    /* Disables all interrupts */
    IOWR_ALTERA_VIC_INT_ENABLE_CLR(pdev->base, 0xFFFFFFFF);
    59e8:	20800017 	ldw	r2,0(r4)
    59ec:	00ffffc4 	movi	r3,-1
    59f0:	10c02235 	stwio	r3,136(r2)

    /* Initialize INT_CONFIG for all interrupts in this VIC */
    for(i = 0; i < pdev->num_of_intr_ports; i++)
    59f4:	20c00704 	addi	r3,r4,28
    59f8:	0005883a 	mov	r2,zero
    59fc:	21800217 	ldw	r6,8(r4)
    {
        IOWR_ALTERA_VIC_INT_CONFIG(pdev->base, i, pdev->int_config[i]);
    5a00:	21400017 	ldw	r5,0(r4)
    for(i = 0; i < pdev->num_of_intr_ports; i++)
    5a04:	11800e36 	bltu	r2,r6,5a40 <alt_vic_irq_init+0x6c>
    }

    /* Set vector size and disable/enable daisy-chained input */
    for(i = 0; i < sizeof(VEC_SIZE_ARRAY)/sizeof(VEC_SIZE_ARRAY[0]); i++)
    {
        if(VEC_SIZE_ARRAY[i] == pdev->vec_size)
    5a08:	21c00517 	ldw	r7,20(r4)
    5a0c:	00800034 	movhi	r2,0
    5a10:	10983204 	addi	r2,r2,24776
    for(i = 0; i < sizeof(VEC_SIZE_ARRAY)/sizeof(VEC_SIZE_ARRAY[0]); i++)
    5a14:	0007883a 	mov	r3,zero
        if(VEC_SIZE_ARRAY[i] == pdev->vec_size)
    5a18:	11800017 	ldw	r6,0(r2)
    5a1c:	31c00f1e 	bne	r6,r7,5a5c <alt_vic_irq_init+0x88>
        {
            IOWR_ALTERA_VIC_CONFIG(pdev->base,
    5a20:	20800417 	ldw	r2,16(r4)
    5a24:	100490fa 	slli	r2,r2,3
    5a28:	10c4b03a 	or	r2,r2,r3
    5a2c:	28802835 	stwio	r2,160(r5)
            break;
        }
    }

    /* Set vector table base address */
    IOWR_ALTERA_VIC_VEC_TBL_BASE(pdev->base,((alt_u32)pdev->vec_addr));
    5a30:	20800017 	ldw	r2,0(r4)
    5a34:	20c00617 	ldw	r3,24(r4)
    5a38:	10c02a35 	stwio	r3,168(r2)
}
    5a3c:	f800283a 	ret
        IOWR_ALTERA_VIC_INT_CONFIG(pdev->base, i, pdev->int_config[i]);
    5a40:	100c90ba 	slli	r6,r2,2
    5a44:	298b883a 	add	r5,r5,r6
    5a48:	19800017 	ldw	r6,0(r3)
    5a4c:	29800035 	stwio	r6,0(r5)
    for(i = 0; i < pdev->num_of_intr_ports; i++)
    5a50:	10800044 	addi	r2,r2,1
    5a54:	18c00104 	addi	r3,r3,4
    5a58:	003fe806 	br	59fc <alt_vic_irq_init+0x28>
    for(i = 0; i < sizeof(VEC_SIZE_ARRAY)/sizeof(VEC_SIZE_ARRAY[0]); i++)
    5a5c:	18c00044 	addi	r3,r3,1
    5a60:	19800218 	cmpnei	r6,r3,8
    5a64:	10800104 	addi	r2,r2,4
    5a68:	303feb1e 	bne	r6,zero,5a18 <alt_vic_irq_init+0x44>
    5a6c:	003ff006 	br	5a30 <alt_vic_irq_init+0x5c>

00005a70 <alt_ic_isr_register>:
{
    alt_vic_dev *pdev;
    alt_u32 *offset;
    alt_irq_context status;

    if(ic_id >= ALT_NUM_EXTERNAL_INTERRUPT_CONTROLLERS)
    5a70:	20001c1e 	bne	r4,zero,5ae4 <alt_ic_isr_register+0x74>
        return -1;

    /* Get VIC handle */
    pdev = alt_vic_dev_list[ic_id];
    5a74:	d0e02b17 	ldw	r3,-32596(gp)

    if(irq < pdev->num_of_intr_ports)
    5a78:	18800217 	ldw	r2,8(r3)
    5a7c:	2880192e 	bgeu	r5,r2,5ae4 <alt_ic_isr_register+0x74>
  NIOS2_READ_STATUS (context);
    5a80:	0005303a 	rdctl	r2,status
  NIOS2_WRITE_STATUS (context & ~NIOS2_STATUS_PIE_MSK);
    5a84:	013fff84 	movi	r4,-2
    5a88:	1108703a 	and	r4,r2,r4
    5a8c:	2001703a 	wrctl	status,r4
    {
        /* Disable all interrupts */
        status = alt_irq_disable_all ();

        /* Get table offset */
        offset = pdev->vec_addr + (irq * pdev->vec_size);
    5a90:	19000517 	ldw	r4,20(r3)
    5a94:	2911383a 	mul	r8,r5,r4
    5a98:	19000617 	ldw	r4,24(r3)
        ALT_VECTOR_TABLE_WRITE(offset+3, isr_context);

        if(isr)
        {
            /* Enable this IRQ on the VIC */
            IOWR_ALTERA_VIC_INT_ENABLE_SET(pdev->base, 1 << irq);
    5a9c:	18c00017 	ldw	r3,0(r3)
        offset = pdev->vec_addr + (irq * pdev->vec_size);
    5aa0:	2209883a 	add	r4,r4,r8
        ALT_VECTOR_TABLE_WRITE(offset+2, isr);
    5aa4:	21800215 	stw	r6,8(r4)
        ALT_VECTOR_TABLE_WRITE(offset+3, isr_context);
    5aa8:	21c00315 	stw	r7,12(r4)
            IOWR_ALTERA_VIC_INT_ENABLE_SET(pdev->base, 1 << irq);
    5aac:	01000044 	movi	r4,1
    5ab0:	214a983a 	sll	r5,r4,r5
        if(isr)
    5ab4:	30000926 	beq	r6,zero,5adc <alt_ic_isr_register+0x6c>
            IOWR_ALTERA_VIC_INT_ENABLE_SET(pdev->base, 1 << irq);
    5ab8:	19402135 	stwio	r5,132(r3)
  NIOS2_READ_STATUS (status);
    5abc:	0007303a 	rdctl	r3,status
  status &= ~NIOS2_STATUS_PIE_MSK;
    5ac0:	013fff84 	movi	r4,-2
    5ac4:	1906703a 	and	r3,r3,r4
  status |= (context & NIOS2_STATUS_PIE_MSK);
    5ac8:	1080004c 	andi	r2,r2,1
    5acc:	10c4b03a 	or	r2,r2,r3
  NIOS2_WRITE_STATUS (status);
    5ad0:	1001703a 	wrctl	status,r2
        }

        /* Re-enable all interrupts */
        alt_irq_enable_all(status);

        return 0;
    5ad4:	0005883a 	mov	r2,zero
    5ad8:	f800283a 	ret
            IOWR_ALTERA_VIC_INT_ENABLE_CLR(pdev->base, 1 << irq);
    5adc:	19402235 	stwio	r5,136(r3)
    5ae0:	003ff606 	br	5abc <alt_ic_isr_register+0x4c>
        return -1;
    5ae4:	00bfffc4 	movi	r2,-1
    }

    return -1;
}
    5ae8:	f800283a 	ret

00005aec <alt_busy_sleep>:
  

  big_loops = us / (INT_MAX/
  (ALT_CPU_FREQ/(cycles_per_loop * 1000000)));

  if (big_loops)
    5aec:	008147f4 	movhi	r2,1311
    5af0:	10ae1404 	addi	r2,r2,-18352
    5af4:	11001a2e 	bgeu	r2,r4,5b60 <alt_busy_sleep+0x74>
  big_loops = us / (INT_MAX/
    5af8:	008147f4 	movhi	r2,1311
    5afc:	10ae1444 	addi	r2,r2,-18351
      /*
      * Do NOT Try to single step the asm statement below 
      * (single step will never return)
      * Step out of this function or set a breakpoint after the asm statements
      */
      __asm__ volatile (
    5b00:	01600034 	movhi	r5,32768
  big_loops = us / (INT_MAX/
    5b04:	2085203a 	divu	r2,r4,r2
    for(i=0;i<big_loops;i++)
    5b08:	0007883a 	mov	r3,zero
      __asm__ volatile (
    5b0c:	297fffc4 	addi	r5,r5,-1
    5b10:	297fffc4 	addi	r5,r5,-1
    5b14:	283ffe1e 	bne	r5,zero,5b10 <alt_busy_sleep+0x24>
    for(i=0;i<big_loops;i++)
    5b18:	18c00044 	addi	r3,r3,1
    5b1c:	18bffc16 	blt	r3,r2,5b10 <alt_busy_sleep+0x24>
    5b20:	00feb874 	movhi	r3,64225
    5b24:	18d1ebc4 	addi	r3,r3,18351
    5b28:	20c9883a 	add	r4,r4,r3
        "\n1:"
        "\n\t.pushsection .debug_alt_sim_info"
        "\n\t.int 4, 0, 0b, 1b"
        "\n\t.popsection"
        :: "r" (INT_MAX));
      us -= (INT_MAX/(ALT_CPU_FREQ/
    5b2c:	00800a0e 	bge	zero,r2,5b58 <alt_busy_sleep+0x6c>
    5b30:	10c5383a 	mul	r2,r2,r3
    5b34:	00c147f4 	movhi	r3,1311
    5b38:	18ee1444 	addi	r3,r3,-18351
    5b3c:	10c5883a 	add	r2,r2,r3
    5b40:	1105883a 	add	r2,r2,r4
      "\n\tbne %0,zero,0b"
      "\n1:"
      "\n\t.pushsection .debug_alt_sim_info"
      "\n\t.int 4, 0, 0b, 1b"
      "\n\t.popsection"
      :: "r" (us*(ALT_CPU_FREQ/(cycles_per_loop * 1000000))));
    5b44:	10800664 	muli	r2,r2,25
    __asm__ volatile (
    5b48:	10bfffc4 	addi	r2,r2,-1
    5b4c:	103ffe1e 	bne	r2,zero,5b48 <alt_busy_sleep+0x5c>
      "\n\t.popsection"
      :: "r" (us*(ALT_CPU_FREQ/(cycles_per_loop * 1000000))));
  }
#endif /* #ifndef ALT_SIM_OPTIMIZE */
  return 0;
}
    5b50:	0005883a 	mov	r2,zero
    5b54:	f800283a 	ret
      us -= (INT_MAX/(ALT_CPU_FREQ/
    5b58:	0005883a 	mov	r2,zero
    5b5c:	003ff806 	br	5b40 <alt_busy_sleep+0x54>
      :: "r" (us*(ALT_CPU_FREQ/(cycles_per_loop * 1000000))));
    5b60:	21000664 	muli	r4,r4,25
    __asm__ volatile (
    5b64:	213fffc4 	addi	r4,r4,-1
    5b68:	013ffe16 	blt	zero,r4,5b64 <alt_busy_sleep+0x78>
    5b6c:	003ff806 	br	5b50 <alt_busy_sleep+0x64>

00005b70 <alt_dcache_flush_all>:
  for (i = (char*) 0; i < (char*) NIOS2_DCACHE_SIZE; i+= NIOS2_DCACHE_LINE_SIZE)
  { 
    __asm__ volatile ("flushd (%0)" :: "r" (i));
  }
#endif /* NIOS2_DCACHE_SIZE > 0 */
}
    5b70:	f800283a 	ret

00005b74 <alt_dev_null_write>:
 * by the alt_dev_null device. It simple discards all data passed to it, and
 * indicates that the data has been successfully transmitted.
 */

static int alt_dev_null_write (alt_fd* fd, const char* ptr, int len)
{
    5b74:	3005883a 	mov	r2,r6
  return len;
}
    5b78:	f800283a 	ret

00005b7c <alt_dev_llist_insert>:
{
  /*
   * check that the device exists, and that it has a valid name.
   */

  if (!dev || !dev->name)
    5b7c:	20000226 	beq	r4,zero,5b88 <alt_dev_llist_insert+0xc>
    5b80:	20800217 	ldw	r2,8(r4)
    5b84:	10000b1e 	bne	r2,zero,5bb4 <alt_dev_llist_insert+0x38>
    5b88:	d0a01217 	ldw	r2,-32696(gp)
    5b8c:	10001126 	beq	r2,zero,5bd4 <alt_dev_llist_insert+0x58>
{
    5b90:	deffff04 	addi	sp,sp,-4
    5b94:	dfc00015 	stw	ra,0(sp)
    5b98:	103ee83a 	callr	r2
  {
    ALT_ERRNO = EINVAL;
    5b9c:	00c00584 	movi	r3,22
    5ba0:	10c00015 	stw	r3,0(r2)
    return -EINVAL;
    5ba4:	00bffa84 	movi	r2,-22
   */
  
  alt_llist_insert(list, &dev->llist);

  return 0;  
}
    5ba8:	dfc00017 	ldw	ra,0(sp)
    5bac:	dec00104 	addi	sp,sp,4
    5bb0:	f800283a 	ret

static ALT_INLINE void ALT_ALWAYS_INLINE alt_llist_insert(alt_llist* list, 
                alt_llist* entry)
{
  entry->previous = list;
  entry->next     = list->next;
    5bb4:	28800017 	ldw	r2,0(r5)
  entry->previous = list;
    5bb8:	21400115 	stw	r5,4(r4)
  entry->next     = list->next;
    5bbc:	20800015 	stw	r2,0(r4)

  list->next->previous = entry;
    5bc0:	28800017 	ldw	r2,0(r5)
    5bc4:	11000115 	stw	r4,4(r2)
  list->next           = entry;
    5bc8:	29000015 	stw	r4,0(r5)
  return 0;  
    5bcc:	0005883a 	mov	r2,zero
    5bd0:	f800283a 	ret
    5bd4:	d0a02704 	addi	r2,gp,-32612
    ALT_ERRNO = EINVAL;
    5bd8:	00c00584 	movi	r3,22
    5bdc:	10c00015 	stw	r3,0(r2)
    return -EINVAL;
    5be0:	00bffa84 	movi	r2,-22
}
    5be4:	f800283a 	ret

00005be8 <_do_ctors>:
/*
 * Run the C++ static constructors.
 */

void _do_ctors(void)
{
    5be8:	defffd04 	addi	sp,sp,-12
    5bec:	dc400115 	stw	r17,4(sp)
    5bf0:	dc000015 	stw	r16,0(sp)
  constructor* ctor;

  for (ctor = &__CTOR_END__[-1]; ctor >= __CTOR_LIST__; ctor--)
    5bf4:	04400034 	movhi	r17,0
    5bf8:	04000034 	movhi	r16,0
{
    5bfc:	dfc00215 	stw	ra,8(sp)
    5c00:	84174604 	addi	r16,r16,23832
  for (ctor = &__CTOR_END__[-1]; ctor >= __CTOR_LIST__; ctor--)
    5c04:	8c574444 	addi	r17,r17,23825
    5c08:	843fff04 	addi	r16,r16,-4
    5c0c:	8440052e 	bgeu	r16,r17,5c24 <_do_ctors+0x3c>
        (*ctor) (); 
}
    5c10:	dfc00217 	ldw	ra,8(sp)
    5c14:	dc400117 	ldw	r17,4(sp)
    5c18:	dc000017 	ldw	r16,0(sp)
    5c1c:	dec00304 	addi	sp,sp,12
    5c20:	f800283a 	ret
        (*ctor) (); 
    5c24:	80800017 	ldw	r2,0(r16)
    5c28:	103ee83a 	callr	r2
  for (ctor = &__CTOR_END__[-1]; ctor >= __CTOR_LIST__; ctor--)
    5c2c:	003ff606 	br	5c08 <_do_ctors+0x20>

00005c30 <alt_find_dev>:
 * "name" must be an exact match for the devices registered name for a match to
 * be found.
 */
 
alt_dev* alt_find_dev(const char* name, alt_llist* llist)
{
    5c30:	defffb04 	addi	sp,sp,-20
    5c34:	dcc00315 	stw	r19,12(sp)
    5c38:	dc800215 	stw	r18,8(sp)
    5c3c:	dc400115 	stw	r17,4(sp)
    5c40:	dc000015 	stw	r16,0(sp)
    5c44:	dfc00415 	stw	ra,16(sp)
  alt_dev* next = (alt_dev*) llist->next;
    5c48:	2c000017 	ldw	r16,0(r5)
{
    5c4c:	2027883a 	mov	r19,r4
    5c50:	2823883a 	mov	r17,r5
  alt_32 len;

  len  = strlen(name) + 1;
    5c54:	0004ff40 	call	4ff4 <strlen>
    5c58:	14800044 	addi	r18,r2,1
  /*
   * Check each list entry in turn, until a match is found, or we reach the
   * end of the list (i.e. next winds up pointing back to the list head).
   */ 

  while (next != (alt_dev*) llist)
    5c5c:	8440091e 	bne	r16,r17,5c84 <alt_find_dev+0x54>
    next = (alt_dev*) next->llist.next;
  }
  
  /* No match found */
  
  return NULL;
    5c60:	0021883a 	mov	r16,zero
}
    5c64:	8005883a 	mov	r2,r16
    5c68:	dfc00417 	ldw	ra,16(sp)
    5c6c:	dcc00317 	ldw	r19,12(sp)
    5c70:	dc800217 	ldw	r18,8(sp)
    5c74:	dc400117 	ldw	r17,4(sp)
    5c78:	dc000017 	ldw	r16,0(sp)
    5c7c:	dec00504 	addi	sp,sp,20
    5c80:	f800283a 	ret
    if (!memcmp (next->name, name, len))
    5c84:	81000217 	ldw	r4,8(r16)
    5c88:	900d883a 	mov	r6,r18
    5c8c:	980b883a 	mov	r5,r19
    5c90:	0005ca40 	call	5ca4 <memcmp>
    5c94:	103ff326 	beq	r2,zero,5c64 <alt_find_dev+0x34>
    next = (alt_dev*) next->llist.next;
    5c98:	84000017 	ldw	r16,0(r16)
    5c9c:	003fef06 	br	5c5c <alt_find_dev+0x2c>

00005ca0 <alt_icache_flush_all>:
void alt_icache_flush_all (void)
{
#if NIOS2_ICACHE_SIZE > 0
  alt_icache_flush (0, NIOS2_ICACHE_SIZE);
#endif
}
    5ca0:	f800283a 	ret

00005ca4 <memcmp>:
    5ca4:	0007883a 	mov	r3,zero
    5ca8:	30c0021e 	bne	r6,r3,5cb4 <memcmp+0x10>
    5cac:	0005883a 	mov	r2,zero
    5cb0:	f800283a 	ret
    5cb4:	20c5883a 	add	r2,r4,r3
    5cb8:	18c00044 	addi	r3,r3,1
    5cbc:	28cf883a 	add	r7,r5,r3
    5cc0:	10800003 	ldbu	r2,0(r2)
    5cc4:	39ffffc3 	ldbu	r7,-1(r7)
    5cc8:	11fff726 	beq	r2,r7,5ca8 <memcmp+0x4>
    5ccc:	11c5c83a 	sub	r2,r2,r7
    5cd0:	f800283a 	ret
    5cd4:	0201ffff 	0x201ffff
    5cd8:	883a0000 	call	883a000 <_gp+0x8829dbc>
    5cdc:	010d00ff 	0x10d00ff
    5ce0:	01010002 	0x1010002
	...
    5cec:	010d00ff 	0x10d00ff
    5cf0:	01010004 	movi	r4,1024
    5cf4:	00000100 	call	10 <_exit+0x4>
    5cf8:	00000000 	call	0 <__alt_mem_instruction_rom_0>
    5cfc:	011100ff 	0x11100ff
    5d00:	01010004 	movi	r4,1024
    5d04:	7f000105 	stb	fp,4(r15)
    5d08:	007d0000 	call	7d000 <_gp+0x6cdbc>
    5d0c:	00000000 	call	0 <__alt_mem_instruction_rom_0>
    5d10:	01883a00 	call	1883a0 <_gp+0x17815c>
    5d14:	00003540 	call	354 <microshell_getline+0xfc>
